;--------------------------------------------------------
; File Created by SDCC : free open source ANSI-C Compiler
; Version 4.0.0 #11528 (Linux)
;--------------------------------------------------------
	.module timer_hal
	.optsdcc -mmcs51 --model-large
	
;--------------------------------------------------------
; Public variables in this module
;--------------------------------------------------------
	.globl _S1SM0_FE
	.globl _T1IE
	.globl _T0IE
	.globl _T1RUN
	.globl _T0RUN
	.globl _CY
	.globl _AC
	.globl _F0
	.globl _RS1
	.globl _RS0
	.globl _OV
	.globl _F1
	.globl _P
	.globl _EA
	.globl _INT1IE
	.globl _INT0IE
	.globl _INT1TR
	.globl _INT0TR
	.globl _P5_5
	.globl _P5_4
	.globl _P5_3
	.globl _P5_2
	.globl _P5_1
	.globl _P5_0
	.globl _P3_7
	.globl _P3_6
	.globl _P3_5
	.globl _P3_4
	.globl _P3_3
	.globl _P3_2
	.globl _P3_1
	.globl _P3_0
	.globl _P2_7
	.globl _P2_6
	.globl _P2_5
	.globl _P2_4
	.globl _P2_3
	.globl _P2_2
	.globl _P2_1
	.globl _P2_0
	.globl _P1_7
	.globl _P1_6
	.globl _P1_5
	.globl _P1_4
	.globl _P1_3
	.globl _P1_2
	.globl _P1_1
	.globl _P1_0
	.globl _USBADR
	.globl _USBCON
	.globl _USBDAT
	.globl _USBCLK
	.globl _S4BUF
	.globl _S4CON
	.globl _S3BUF
	.globl _S3CON
	.globl _S2BUF
	.globl _S2CON
	.globl _S1BUF
	.globl _S1CON
	.globl _SADEN
	.globl _SADDR
	.globl _AUXINTIF
	.globl _T3
	.globl _T3L
	.globl _T3H
	.globl _T4
	.globl _T4L
	.globl _T4H
	.globl _T4T3M
	.globl _WDT_CONTR
	.globl _AUXR
	.globl _T2
	.globl _T2H
	.globl _T2L
	.globl _T1
	.globl _T1H
	.globl _T1L
	.globl _T0
	.globl _T0H
	.globl _T0L
	.globl _TMOD
	.globl _TCON
	.globl _IRTRIM
	.globl _LIRTRIM
	.globl _IRCBAND
	.globl _SPDAT
	.globl _SPCTL
	.globl _SPSTAT
	.globl _WKTC
	.globl _WKTCH
	.globl _WKTCL
	.globl _BUS_SPEED
	.globl _P_SW2
	.globl _P_SW1
	.globl _RSTCFG
	.globl _PCON
	.globl _B
	.globl _ACC
	.globl _PSW
	.globl _SP
	.globl _IP3H
	.globl _IP3L
	.globl _IP2H
	.globl _IP2L
	.globl _IE2
	.globl _IP1H
	.globl _IP1L
	.globl _IE1
	.globl _INT_CLKO
	.globl _IAP_TPS
	.globl _IAP_CONTR
	.globl _IAP_TRIG
	.globl _IAP_CMD
	.globl _IAP_ADDR
	.globl _IAP_ADDRL
	.globl _IAP_ADDRH
	.globl _IAP_DATA
	.globl _P5M0
	.globl _P5M1
	.globl _P5
	.globl _P3M0
	.globl _P3M1
	.globl _P3
	.globl _P2M0
	.globl _P2M1
	.globl _P2
	.globl _P1M0
	.globl _P1M1
	.globl _P1
	.globl _TA
	.globl _DPH1
	.globl _DPL1
	.globl _DPS
	.globl _DP
	.globl _DPH
	.globl _DPL
	.globl _CMPCR2
	.globl _CMPCR1
	.globl _DMA_ADC_AMT
	.globl _ADCCFG
	.globl _ADC_RES
	.globl _ADC_RESL
	.globl _ADC_RESH
	.globl _ADC_CONTR
	.globl _startTimer_PARM_5
	.globl _startTimer_PARM_4
	.globl _startTimer_PARM_3
	.globl _startTimer_PARM_2
	.globl _DMA_UR4R_TXAL
	.globl _DMA_UR4R_TXAH
	.globl _DMA_UR4R_DONE
	.globl _DMA_UR4R_AMT
	.globl _DMA_UR4R_STA
	.globl _DMA_UR4R_CR
	.globl _DMA_UR4R_CFG
	.globl _DMA_UR4T_TXAL
	.globl _DMA_UR4T_TXAH
	.globl _DMA_UR4T_DONE
	.globl _DMA_UR4T_AMT
	.globl _DMA_UR4T_STA
	.globl _DMA_UR4T_CR
	.globl _DMA_UR4T_CFG
	.globl _DMA_UR3R_TXAL
	.globl _DMA_UR3R_TXAH
	.globl _DMA_UR3R_DONE
	.globl _DMA_UR3R_AMT
	.globl _DMA_UR3R_STA
	.globl _DMA_UR3R_CR
	.globl _DMA_UR3R_CFG
	.globl _DMA_UR3T_TXAL
	.globl _DMA_UR3T_TXAH
	.globl _DMA_UR3T_DONE
	.globl _DMA_UR3T_AMT
	.globl _DMA_UR3T_STA
	.globl _DMA_UR3T_CR
	.globl _DMA_UR3T_CFG
	.globl _DMA_UR2R_TXAL
	.globl _DMA_UR2R_TXAH
	.globl _DMA_UR2R_DONE
	.globl _DMA_UR2R_AMT
	.globl _DMA_UR2R_STA
	.globl _DMA_UR2R_CR
	.globl _DMA_UR2R_CFG
	.globl _DMA_UR2T_TXAL
	.globl _DMA_UR2T_TXAH
	.globl _DMA_UR2T_DONE
	.globl _DMA_UR2T_AMT
	.globl _DMA_UR2T_STA
	.globl _DMA_UR2T_CR
	.globl _DMA_UR2T_CFG
	.globl _DMA_UR1R_TXAL
	.globl _DMA_UR1R_TXAH
	.globl _DMA_UR1R_DONE
	.globl _DMA_UR1R_AMT
	.globl _DMA_UR1R_STA
	.globl _DMA_UR1R_CR
	.globl _DMA_UR1R_CFG
	.globl _DMA_UR1T_TXAL
	.globl _DMA_UR1T_TXAH
	.globl _DMA_UR1T_DONE
	.globl _DMA_URTX_AMT
	.globl _DMA_UR1T_STA
	.globl _DMA_UR1T_CR
	.globl _DMA_UR1T_CFG
	.globl _TM4PS
	.globl _TM3PS
	.globl _TM2PS
	.globl _IRC48MCR
	.globl _IRCDB
	.globl _MCLKOCR
	.globl _CKSEL
	.globl _IRC32KCR
	.globl _XOSCCR
	.globl _HIRCCR
	.globl _CLKDIV
	.globl _DMA_SPI_CFG2
	.globl _DMA_SPI_RXAL
	.globl _DMA_SPI_RXAH
	.globl _DMA_SPI_TXAL
	.globl _DMA_SPI_TXAH
	.globl _DMA_SPI_DONE
	.globl _DMA_SPI_AMT
	.globl _DMA_SPI_STA
	.globl _DMA_SPI_CR
	.globl _DMA_SPI_CFG
	.globl _SSEC
	.globl _SEC
	.globl _MIN
	.globl _HOUR
	.globl _DAY
	.globl _MONTH
	.globl _YEAR
	.globl _INISSEC
	.globl _INISEC
	.globl _INIMIN
	.globl _INIHOUR
	.globl _INIDAY
	.globl _INIMONTH
	.globl _INIYEAR
	.globl _ALASSEC
	.globl _ALASEC
	.globl _ALAMIN
	.globl _ALAHOUR
	.globl _RTCIF
	.globl _RTCIEN
	.globl _RTCCFG
	.globl _RTCCR
	.globl _PWMB_OISR
	.globl _PWMB_DTR
	.globl _PWMB_BKR
	.globl _PWMB_CCR4L
	.globl _PWMB_CCR4H
	.globl _PWMB_CCR3L
	.globl _PWMB_CCR3H
	.globl _PWMB_CCR2L
	.globl _PWMB_CCR2H
	.globl _PWMB_CCR1L
	.globl _PWMB_CCR1H
	.globl _PWMB_RCR
	.globl _PWMB_ARRL
	.globl _PWMB_ARRH
	.globl _PWMB_PSCRL
	.globl _PWMB_PSCRH
	.globl _PWMB_CNTRL
	.globl _PWMB_CNTRH
	.globl _PWMB_CCER2
	.globl _PWMB_CCER1
	.globl _PWMB_CCMR4
	.globl _PWMB_CCMR3
	.globl _PWMB_CCMR2
	.globl _PWMB_CCMR1
	.globl _PWMB_EGR
	.globl _PWMB_SR2
	.globl _PWMB_SR1
	.globl _PWMB_IER
	.globl _PWMB_ETR
	.globl _PWMB_SMCR
	.globl _PWMB_CR2
	.globl _PWMB_CR1
	.globl _PWMA_OISR
	.globl _PWMA_DTR
	.globl _PWMA_BKR
	.globl _PWMA_CCR4L
	.globl _PWMA_CCR4H
	.globl _PWMA_CCR3L
	.globl _PWMA_CCR3H
	.globl _PWMA_CCR2L
	.globl _PWMA_CCR2H
	.globl _PWMA_CCR1L
	.globl _PWMA_CCR1H
	.globl _PWMA_RCR
	.globl _PWMA_ARRL
	.globl _PWMA_ARRH
	.globl _PWMA_PSCRL
	.globl _PWMA_PSCRH
	.globl _PWMA_CNTRL
	.globl _PWMA_CNTRH
	.globl _PWMA_CCER2
	.globl _PWMA_CCER1
	.globl _PWMA_CCMR4
	.globl _PWMA_CCMR3
	.globl _PWMA_CCMR2
	.globl _PWMA_CCMR1
	.globl _PWMA_EGR
	.globl _PWMA_SR2
	.globl _PWMA_SR1
	.globl _PWMA_IER
	.globl _PWMA_ETR
	.globl _PWMA_SMCR
	.globl _PWMA_CR2
	.globl _PWMA_CR1
	.globl _PWMB_IOAUX
	.globl _PWMB_PS
	.globl _PWMB_ENO
	.globl _PWMB_ETRPS
	.globl _PWMA_IOAUX
	.globl _PWMA_PS
	.globl _PWMA_ENO
	.globl _PWMA_ETRPS
	.globl _RSTFLAG
	.globl _SPFUNC
	.globl _OPCON
	.globl _ARCON
	.globl _MD4
	.globl _MD5
	.globl _MD0
	.globl _MD1
	.globl _MD2
	.globl _MD3
	.globl _DMA_LCM_RXAL
	.globl _DMA_LCM_RXAH
	.globl _DMA_LCM_TXAL
	.globl _DMA_LCM_TXAH
	.globl _DMA_LCM_DONE
	.globl _DMA_LCM_AMT
	.globl _DMA_LCM_STA
	.globl _DMA_LCM_CR
	.globl _DMA_LCM_CFG
	.globl _LCMIDDAT
	.globl _LCMIDDATH
	.globl _LCMIDDATL
	.globl _LCMSTA
	.globl _LCMCR
	.globl _LCMCFG2
	.globl _LCMCFG
	.globl _I2CMSAUX
	.globl _I2CRXD
	.globl _I2CTXD
	.globl _I2CSLADR
	.globl _I2CSLST
	.globl _I2CSLCR
	.globl _I2CMSST
	.globl _I2CMSCR
	.globl _I2CCFG
	.globl _PINIPH
	.globl _PINIPL
	.globl _P5IE
	.globl _P5DR
	.globl _P5SR
	.globl _P5NCS
	.globl _P5PU
	.globl _P5WKUE
	.globl _P5IM1
	.globl _P5IM0
	.globl _P5INTF
	.globl _P5INTE
	.globl _P3IE
	.globl _P3DR
	.globl _P3SR
	.globl _P3NCS
	.globl _P3PU
	.globl _P3WKUE
	.globl _P3IM1
	.globl _P3IM0
	.globl _P3INTF
	.globl _P3INTE
	.globl _P2IE
	.globl _P2DR
	.globl _P2SR
	.globl _P2NCS
	.globl _P2PU
	.globl _P2WKUE
	.globl _P2IM1
	.globl _P2IM0
	.globl _P2INTF
	.globl _P2INTE
	.globl _P1IE
	.globl _P1DR
	.globl _P1SR
	.globl _P1NCS
	.globl _P1PU
	.globl _P1WKUE
	.globl _P1IM1
	.globl _P1IM0
	.globl _P1INTF
	.globl _P1INTE
	.globl _DMA_M2M_RXAL
	.globl _DMA_M2M_RXAH
	.globl _DMA_M2M_TXAL
	.globl _DMA_M2M_TXAH
	.globl _DMA_M2M_DONE
	.globl _DMA_M2M_AMT
	.globl _DMA_M2M_STA
	.globl _DMA_M2M_CR
	.globl _DMA_M2M_CFG
	.globl _CMPEXCFG
	.globl _DMA_ADC_CHSW1
	.globl _DMA_ADC_CHSW0
	.globl _DMA_ADC_CFG2
	.globl _DMA_ADC_RXAL
	.globl _DMA_ADC_RXAH
	.globl _DMA_ADC_STA
	.globl _DMA_ADC_CR
	.globl _DMA_ADC_CFG
	.globl _ADCEXCFG
	.globl _ADCTIM
	.globl _startTimer
	.globl _stopTimer
;--------------------------------------------------------
; special function registers
;--------------------------------------------------------
	.area RSEG    (ABS,DATA)
	.org 0x0000
_ADC_CONTR	=	0x00bc
_ADC_RESH	=	0x00bd
_ADC_RESL	=	0x00be
_ADC_RES	=	0xbdbe
_ADCCFG	=	0x00de
_DMA_ADC_AMT	=	0x00fa
_CMPCR1	=	0x00e6
_CMPCR2	=	0x00e7
_DPL	=	0x0082
_DPH	=	0x0083
_DP	=	0x8382
_DPS	=	0x00e3
_DPL1	=	0x00e4
_DPH1	=	0x00e5
_TA	=	0x00ae
_P1	=	0x0090
_P1M1	=	0x0091
_P1M0	=	0x0092
_P2	=	0x00a0
_P2M1	=	0x0095
_P2M0	=	0x0096
_P3	=	0x00b0
_P3M1	=	0x00b1
_P3M0	=	0x00b2
_P5	=	0x00c8
_P5M1	=	0x00c9
_P5M0	=	0x00ca
_IAP_DATA	=	0x00c2
_IAP_ADDRH	=	0x00c3
_IAP_ADDRL	=	0x00c4
_IAP_ADDR	=	0xc3c4
_IAP_CMD	=	0x00c5
_IAP_TRIG	=	0x00c6
_IAP_CONTR	=	0x00c7
_IAP_TPS	=	0x00f5
_INT_CLKO	=	0x008f
_IE1	=	0x00a8
_IP1L	=	0x00b8
_IP1H	=	0x00b7
_IE2	=	0x00af
_IP2L	=	0x00b5
_IP2H	=	0x00b6
_IP3L	=	0x00df
_IP3H	=	0x00ee
_SP	=	0x0081
_PSW	=	0x00d0
_ACC	=	0x00e0
_B	=	0x00f0
_PCON	=	0x0087
_RSTCFG	=	0x00ff
_P_SW1	=	0x00a2
_P_SW2	=	0x00ba
_BUS_SPEED	=	0x00a1
_WKTCL	=	0x00aa
_WKTCH	=	0x00ab
_WKTC	=	0xabaa
_SPSTAT	=	0x00cd
_SPCTL	=	0x00ce
_SPDAT	=	0x00cf
_IRCBAND	=	0x009d
_LIRTRIM	=	0x009e
_IRTRIM	=	0x009f
_TCON	=	0x0088
_TMOD	=	0x0089
_T0L	=	0x008a
_T0H	=	0x008c
_T0	=	0x8c8a
_T1L	=	0x008b
_T1H	=	0x008d
_T1	=	0x8d8b
_T2L	=	0x00d7
_T2H	=	0x00d6
_T2	=	0xd6d7
_AUXR	=	0x008e
_WDT_CONTR	=	0x00c1
_T4T3M	=	0x00d1
_T4H	=	0x00d2
_T4L	=	0x00d3
_T4	=	0xd2d3
_T3H	=	0x00d4
_T3L	=	0x00d5
_T3	=	0xd4d5
_AUXINTIF	=	0x00ef
_SADDR	=	0x00a9
_SADEN	=	0x00b9
_S1CON	=	0x0098
_S1BUF	=	0x0099
_S2CON	=	0x009a
_S2BUF	=	0x009b
_S3CON	=	0x00ac
_S3BUF	=	0x00ad
_S4CON	=	0x0084
_S4BUF	=	0x0085
_USBCLK	=	0x00dc
_USBDAT	=	0x00ec
_USBCON	=	0x00f4
_USBADR	=	0x00fc
;--------------------------------------------------------
; special function bits
;--------------------------------------------------------
	.area RSEG    (ABS,DATA)
	.org 0x0000
_P1_0	=	0x0090
_P1_1	=	0x0091
_P1_2	=	0x0092
_P1_3	=	0x0093
_P1_4	=	0x0094
_P1_5	=	0x0095
_P1_6	=	0x0096
_P1_7	=	0x0097
_P2_0	=	0x00a0
_P2_1	=	0x00a1
_P2_2	=	0x00a2
_P2_3	=	0x00a3
_P2_4	=	0x00a4
_P2_5	=	0x00a5
_P2_6	=	0x00a6
_P2_7	=	0x00a7
_P3_0	=	0x00b0
_P3_1	=	0x00b1
_P3_2	=	0x00b2
_P3_3	=	0x00b3
_P3_4	=	0x00b4
_P3_5	=	0x00b5
_P3_6	=	0x00b6
_P3_7	=	0x00b7
_P5_0	=	0x00c8
_P5_1	=	0x00c9
_P5_2	=	0x00ca
_P5_3	=	0x00cb
_P5_4	=	0x00cc
_P5_5	=	0x00cd
_INT0TR	=	0x0088
_INT1TR	=	0x008a
_INT0IE	=	0x00a8
_INT1IE	=	0x00aa
_EA	=	0x00af
_P	=	0x00d0
_F1	=	0x00d1
_OV	=	0x00d2
_RS0	=	0x00d3
_RS1	=	0x00d4
_F0	=	0x00d5
_AC	=	0x00d6
_CY	=	0x00d7
_T0RUN	=	0x008c
_T1RUN	=	0x008e
_T0IE	=	0x00a9
_T1IE	=	0x00ab
_S1SM0_FE	=	0x009f
;--------------------------------------------------------
; overlayable register banks
;--------------------------------------------------------
	.area REG_BANK_0	(REL,OVR,DATA)
	.ds 8
;--------------------------------------------------------
; internal ram data
;--------------------------------------------------------
	.area DSEG    (DATA)
_startTimer_sloc0_1_0:
	.ds 2
;--------------------------------------------------------
; overlayable items in internal ram 
;--------------------------------------------------------
;--------------------------------------------------------
; indirectly addressable internal ram data
;--------------------------------------------------------
	.area ISEG    (DATA)
;--------------------------------------------------------
; absolute internal ram data
;--------------------------------------------------------
	.area IABS    (ABS,DATA)
	.area IABS    (ABS,DATA)
;--------------------------------------------------------
; bit data
;--------------------------------------------------------
	.area BSEG    (BIT)
;--------------------------------------------------------
; paged external ram data
;--------------------------------------------------------
	.area PSEG    (PAG,XDATA)
;--------------------------------------------------------
; external ram data
;--------------------------------------------------------
	.area XSEG    (XDATA)
_ADCTIM	=	0xfea8
_ADCEXCFG	=	0xfead
_DMA_ADC_CFG	=	0xfa10
_DMA_ADC_CR	=	0xfa11
_DMA_ADC_STA	=	0xfa12
_DMA_ADC_RXAH	=	0xfa17
_DMA_ADC_RXAL	=	0xfa18
_DMA_ADC_CFG2	=	0xfa19
_DMA_ADC_CHSW0	=	0xfa1a
_DMA_ADC_CHSW1	=	0xfa1b
_CMPEXCFG	=	0xfeae
_DMA_M2M_CFG	=	0xfa00
_DMA_M2M_CR	=	0xfa01
_DMA_M2M_STA	=	0xfa02
_DMA_M2M_AMT	=	0xfa03
_DMA_M2M_DONE	=	0xfa04
_DMA_M2M_TXAH	=	0xfa05
_DMA_M2M_TXAL	=	0xfa06
_DMA_M2M_RXAH	=	0xfa07
_DMA_M2M_RXAL	=	0xfa08
_P1INTE	=	0xfd01
_P1INTF	=	0xfd11
_P1IM0	=	0xfd21
_P1IM1	=	0xfd31
_P1WKUE	=	0xfd41
_P1PU	=	0xfe11
_P1NCS	=	0xfe19
_P1SR	=	0xfe21
_P1DR	=	0xfe29
_P1IE	=	0xfe31
_P2INTE	=	0xfd02
_P2INTF	=	0xfd12
_P2IM0	=	0xfd22
_P2IM1	=	0xfd32
_P2WKUE	=	0xfd42
_P2PU	=	0xfe12
_P2NCS	=	0xfe1a
_P2SR	=	0xfe22
_P2DR	=	0xfe2a
_P2IE	=	0xfe32
_P3INTE	=	0xfd03
_P3INTF	=	0xfd13
_P3IM0	=	0xfd23
_P3IM1	=	0xfd33
_P3WKUE	=	0xfd43
_P3PU	=	0xfe13
_P3NCS	=	0xfe1b
_P3SR	=	0xfe23
_P3DR	=	0xfe2b
_P3IE	=	0xfe33
_P5INTE	=	0xfd05
_P5INTF	=	0xfd15
_P5IM0	=	0xfd25
_P5IM1	=	0xfd35
_P5WKUE	=	0xfd45
_P5PU	=	0xfe15
_P5NCS	=	0xfe1d
_P5SR	=	0xfe25
_P5DR	=	0xfe2d
_P5IE	=	0xfe35
_PINIPL	=	0xfd60
_PINIPH	=	0xfd61
_I2CCFG	=	0xfe80
_I2CMSCR	=	0xfe81
_I2CMSST	=	0xfe82
_I2CSLCR	=	0xfe83
_I2CSLST	=	0xfe84
_I2CSLADR	=	0xfe85
_I2CTXD	=	0xfe86
_I2CRXD	=	0xfe87
_I2CMSAUX	=	0xfe88
_LCMCFG	=	0xfe50
_LCMCFG2	=	0xfe51
_LCMCR	=	0xfe52
_LCMSTA	=	0xfe53
_LCMIDDATL	=	0xfe54
_LCMIDDATH	=	0xfe55
_LCMIDDAT	=	0xfe54
_DMA_LCM_CFG	=	0xfa70
_DMA_LCM_CR	=	0xfa71
_DMA_LCM_STA	=	0xfa72
_DMA_LCM_AMT	=	0xfa73
_DMA_LCM_DONE	=	0xfa74
_DMA_LCM_TXAH	=	0xfa75
_DMA_LCM_TXAL	=	0xfa76
_DMA_LCM_RXAH	=	0xfa77
_DMA_LCM_RXAL	=	0xfa78
_MD3	=	0xfcf0
_MD2	=	0xfcf1
_MD1	=	0xfcf2
_MD0	=	0xfcf3
_MD5	=	0xfcf4
_MD4	=	0xfcf5
_ARCON	=	0xfcf6
_OPCON	=	0xfcf7
_SPFUNC	=	0xfe08
_RSTFLAG	=	0xfe09
_PWMA_ETRPS	=	0xfeb0
_PWMA_ENO	=	0xfeb1
_PWMA_PS	=	0xfeb2
_PWMA_IOAUX	=	0xfeb3
_PWMB_ETRPS	=	0xfeb4
_PWMB_ENO	=	0xfeb5
_PWMB_PS	=	0xfeb6
_PWMB_IOAUX	=	0xfeb7
_PWMA_CR1	=	0xfec0
_PWMA_CR2	=	0xfec1
_PWMA_SMCR	=	0xfec2
_PWMA_ETR	=	0xfec3
_PWMA_IER	=	0xfec4
_PWMA_SR1	=	0xfec5
_PWMA_SR2	=	0xfec6
_PWMA_EGR	=	0xfec7
_PWMA_CCMR1	=	0xfec8
_PWMA_CCMR2	=	0xfec9
_PWMA_CCMR3	=	0xfeca
_PWMA_CCMR4	=	0xfecb
_PWMA_CCER1	=	0xfecc
_PWMA_CCER2	=	0xfecd
_PWMA_CNTRH	=	0xfece
_PWMA_CNTRL	=	0xfecf
_PWMA_PSCRH	=	0xfed0
_PWMA_PSCRL	=	0xfed1
_PWMA_ARRH	=	0xfed2
_PWMA_ARRL	=	0xfed3
_PWMA_RCR	=	0xfed4
_PWMA_CCR1H	=	0xfed5
_PWMA_CCR1L	=	0xfed6
_PWMA_CCR2H	=	0xfed7
_PWMA_CCR2L	=	0xfed8
_PWMA_CCR3H	=	0xfed9
_PWMA_CCR3L	=	0xfeda
_PWMA_CCR4H	=	0xfedb
_PWMA_CCR4L	=	0xfedc
_PWMA_BKR	=	0xfedd
_PWMA_DTR	=	0xfede
_PWMA_OISR	=	0xfedf
_PWMB_CR1	=	0xfee0
_PWMB_CR2	=	0xfee1
_PWMB_SMCR	=	0xfee2
_PWMB_ETR	=	0xfee3
_PWMB_IER	=	0xfee4
_PWMB_SR1	=	0xfee5
_PWMB_SR2	=	0xfee6
_PWMB_EGR	=	0xfee7
_PWMB_CCMR1	=	0xfee8
_PWMB_CCMR2	=	0xfee9
_PWMB_CCMR3	=	0xfeea
_PWMB_CCMR4	=	0xfeeb
_PWMB_CCER1	=	0xfeec
_PWMB_CCER2	=	0xfeed
_PWMB_CNTRH	=	0xfeee
_PWMB_CNTRL	=	0xfeef
_PWMB_PSCRH	=	0xfef0
_PWMB_PSCRL	=	0xfef1
_PWMB_ARRH	=	0xfef2
_PWMB_ARRL	=	0xfef3
_PWMB_RCR	=	0xfef4
_PWMB_CCR1H	=	0xfef5
_PWMB_CCR1L	=	0xfef6
_PWMB_CCR2H	=	0xfef7
_PWMB_CCR2L	=	0xfef8
_PWMB_CCR3H	=	0xfef9
_PWMB_CCR3L	=	0xfefa
_PWMB_CCR4H	=	0xfefb
_PWMB_CCR4L	=	0xfefc
_PWMB_BKR	=	0xfefd
_PWMB_DTR	=	0xfefe
_PWMB_OISR	=	0xfeff
_RTCCR	=	0xfe60
_RTCCFG	=	0xfe61
_RTCIEN	=	0xfe62
_RTCIF	=	0xfe63
_ALAHOUR	=	0xfe64
_ALAMIN	=	0xfe65
_ALASEC	=	0xfe66
_ALASSEC	=	0xfe67
_INIYEAR	=	0xfe68
_INIMONTH	=	0xfe69
_INIDAY	=	0xfe6a
_INIHOUR	=	0xfe6b
_INIMIN	=	0xfe6c
_INISEC	=	0xfe6d
_INISSEC	=	0xfe6e
_YEAR	=	0xfe70
_MONTH	=	0xfe71
_DAY	=	0xfe72
_HOUR	=	0xfe73
_MIN	=	0xfe74
_SEC	=	0xfe75
_SSEC	=	0xfe76
_DMA_SPI_CFG	=	0xfa20
_DMA_SPI_CR	=	0xfa21
_DMA_SPI_STA	=	0xfa22
_DMA_SPI_AMT	=	0xfa23
_DMA_SPI_DONE	=	0xfa24
_DMA_SPI_TXAH	=	0xfa25
_DMA_SPI_TXAL	=	0xfa26
_DMA_SPI_RXAH	=	0xfa27
_DMA_SPI_RXAL	=	0xfa28
_DMA_SPI_CFG2	=	0xfa29
_CLKDIV	=	0xfe01
_HIRCCR	=	0xfe02
_XOSCCR	=	0xfe03
_IRC32KCR	=	0xfe04
_CKSEL	=	0xfe00
_MCLKOCR	=	0xfe05
_IRCDB	=	0xfe06
_IRC48MCR	=	0xfe07
_TM2PS	=	0xfea2
_TM3PS	=	0xfea3
_TM4PS	=	0xfea4
_DMA_UR1T_CFG	=	0xfa30
_DMA_UR1T_CR	=	0xfa31
_DMA_UR1T_STA	=	0xfa32
_DMA_URTX_AMT	=	0xfa33
_DMA_UR1T_DONE	=	0xfa34
_DMA_UR1T_TXAH	=	0xfa35
_DMA_UR1T_TXAL	=	0xfa36
_DMA_UR1R_CFG	=	0xfa38
_DMA_UR1R_CR	=	0xfa39
_DMA_UR1R_STA	=	0xfa3a
_DMA_UR1R_AMT	=	0xfa3b
_DMA_UR1R_DONE	=	0xfa3c
_DMA_UR1R_TXAH	=	0xfa3d
_DMA_UR1R_TXAL	=	0xfa3e
_DMA_UR2T_CFG	=	0xfa30
_DMA_UR2T_CR	=	0xfa31
_DMA_UR2T_STA	=	0xfa32
_DMA_UR2T_AMT	=	0xfa33
_DMA_UR2T_DONE	=	0xfa34
_DMA_UR2T_TXAH	=	0xfa35
_DMA_UR2T_TXAL	=	0xfa36
_DMA_UR2R_CFG	=	0xfa38
_DMA_UR2R_CR	=	0xfa39
_DMA_UR2R_STA	=	0xfa3a
_DMA_UR2R_AMT	=	0xfa3b
_DMA_UR2R_DONE	=	0xfa3c
_DMA_UR2R_TXAH	=	0xfa3d
_DMA_UR2R_TXAL	=	0xfa3e
_DMA_UR3T_CFG	=	0xfa30
_DMA_UR3T_CR	=	0xfa31
_DMA_UR3T_STA	=	0xfa32
_DMA_UR3T_AMT	=	0xfa33
_DMA_UR3T_DONE	=	0xfa34
_DMA_UR3T_TXAH	=	0xfa35
_DMA_UR3T_TXAL	=	0xfa36
_DMA_UR3R_CFG	=	0xfa38
_DMA_UR3R_CR	=	0xfa39
_DMA_UR3R_STA	=	0xfa3a
_DMA_UR3R_AMT	=	0xfa3b
_DMA_UR3R_DONE	=	0xfa3c
_DMA_UR3R_TXAH	=	0xfa3d
_DMA_UR3R_TXAL	=	0xfa3e
_DMA_UR4T_CFG	=	0xfa30
_DMA_UR4T_CR	=	0xfa31
_DMA_UR4T_STA	=	0xfa32
_DMA_UR4T_AMT	=	0xfa33
_DMA_UR4T_DONE	=	0xfa34
_DMA_UR4T_TXAH	=	0xfa35
_DMA_UR4T_TXAL	=	0xfa36
_DMA_UR4R_CFG	=	0xfa38
_DMA_UR4R_CR	=	0xfa39
_DMA_UR4R_STA	=	0xfa3a
_DMA_UR4R_AMT	=	0xfa3b
_DMA_UR4R_DONE	=	0xfa3c
_DMA_UR4R_TXAH	=	0xfa3d
_DMA_UR4R_TXAL	=	0xfa3e
_uartGetCharacter_result_65536_69:
	.ds 1
_startTimer_PARM_2:
	.ds 4
_startTimer_PARM_3:
	.ds 1
_startTimer_PARM_4:
	.ds 1
_startTimer_PARM_5:
	.ds 1
_startTimer_timer_65536_148:
	.ds 1
_startTimer_rc_65536_149:
	.ds 1
_startTimer_sysclkDiv1_65536_149:
	.ds 1
_startTimer_prescaler_131072_151:
	.ds 2
_stopTimer_timer_65536_182:
	.ds 1
_stopTimer_counterValue_65536_183:
	.ds 2
;--------------------------------------------------------
; absolute external ram data
;--------------------------------------------------------
	.area XABS    (ABS,XDATA)
;--------------------------------------------------------
; external initialized ram data
;--------------------------------------------------------
	.area XISEG   (XDATA)
	.area HOME    (CODE)
	.area GSINIT0 (CODE)
	.area GSINIT1 (CODE)
	.area GSINIT2 (CODE)
	.area GSINIT3 (CODE)
	.area GSINIT4 (CODE)
	.area GSINIT5 (CODE)
	.area GSINIT  (CODE)
	.area GSFINAL (CODE)
	.area CSEG    (CODE)
;--------------------------------------------------------
; global & static initialisations
;--------------------------------------------------------
	.area HOME    (CODE)
	.area GSINIT  (CODE)
	.area GSFINAL (CODE)
	.area GSINIT  (CODE)
;--------------------------------------------------------
; Home
;--------------------------------------------------------
	.area HOME    (CODE)
	.area HOME    (CODE)
;--------------------------------------------------------
; code
;--------------------------------------------------------
	.area CSEG    (CODE)
;------------------------------------------------------------
;Allocation info for local variables in function 'startTimer'
;------------------------------------------------------------
;sloc0                     Allocated with name '_startTimer_sloc0_1_0'
;sysclkDivisor             Allocated with name '_startTimer_PARM_2'
;enableOutput              Allocated with name '_startTimer_PARM_3'
;enableInterrupt           Allocated with name '_startTimer_PARM_4'
;timerControl              Allocated with name '_startTimer_PARM_5'
;timer                     Allocated with name '_startTimer_timer_65536_148'
;rc                        Allocated with name '_startTimer_rc_65536_149'
;sysclkDiv1                Allocated with name '_startTimer_sysclkDiv1_65536_149'
;prescaler                 Allocated with name '_startTimer_prescaler_131072_151'
;reloadValue               Allocated with name '_startTimer_reloadValue_131072_160'
;------------------------------------------------------------
;	/home/mr-a-717/.stc/uni-stc/hal/timer-hal.c:54: TimerStatus startTimer(Timer timer, uint32_t sysclkDivisor, OutputEnable enableOutput, InterruptEnable enableInterrupt, CounterControl timerControl) {
;	-----------------------------------------
;	 function startTimer
;	-----------------------------------------
_startTimer:
	ar7 = 0x07
	ar6 = 0x06
	ar5 = 0x05
	ar4 = 0x04
	ar3 = 0x03
	ar2 = 0x02
	ar1 = 0x01
	ar0 = 0x00
	mov	a,dpl
	mov	dptr,#_startTimer_timer_65536_148
	movx	@dptr,a
;	/home/mr-a-717/.stc/uni-stc/hal/timer-hal.c:55: TimerStatus rc = TIMER_FREQUENCY_OK;
	mov	dptr,#_startTimer_rc_65536_149
	clr	a
	movx	@dptr,a
;	/home/mr-a-717/.stc/uni-stc/hal/timer-hal.c:56: uint8_t sysclkDiv1 = 1;
	mov	dptr,#_startTimer_sysclkDiv1_65536_149
	inc	a
	movx	@dptr,a
;	/home/mr-a-717/.stc/uni-stc/hal/timer-hal.c:58: if (sysclkDivisor == 0) {
	mov	dptr,#_startTimer_PARM_2
	movx	a,@dptr
	mov	r4,a
	inc	dptr
	movx	a,@dptr
	mov	r5,a
	inc	dptr
	movx	a,@dptr
	mov	r6,a
	inc	dptr
	movx	a,@dptr
	mov	r7,a
	mov	a,r4
	orl	a,r5
	orl	a,r6
	orl	a,r7
	jnz	00121$
;	/home/mr-a-717/.stc/uni-stc/hal/timer-hal.c:60: rc = TIMER_FREQUENCY_TOO_HIGH;
	mov	dptr,#_startTimer_rc_65536_149
	mov	a,#0x01
	movx	@dptr,a
	ljmp	00122$
00121$:
;	/home/mr-a-717/.stc/uni-stc/hal/timer-hal.c:63: uint16_t prescaler = 0;
	mov	dptr,#_startTimer_prescaler_131072_151
	clr	a
	movx	@dptr,a
	inc	dptr
	movx	@dptr,a
;	/home/mr-a-717/.stc/uni-stc/hal/timer-hal.c:65: switch (timer) {
	mov	dptr,#_startTimer_timer_65536_148
	movx	a,@dptr
	mov	r3,a
	jz	00102$
	cjne	r3,#0x01,00108$
;	/home/mr-a-717/.stc/uni-stc/hal/timer-hal.c:68: case TIMER1:
00102$:
;	/home/mr-a-717/.stc/uni-stc/hal/timer-hal.c:72: if (sysclkDivisor > COUNTER_MAX) {
	clr	c
	clr	a
	subb	a,r4
	clr	a
	subb	a,r5
	mov	a,#0x01
	subb	a,r6
	clr	a
	subb	a,r7
	jc	00279$
	ljmp	00115$
00279$:
;	/home/mr-a-717/.stc/uni-stc/hal/timer-hal.c:73: if (sysclkDivisor <= (COUNTER_MAX * 12UL)) {
	clr	c
	clr	a
	subb	a,r4
	clr	a
	subb	a,r5
	mov	a,#0x0c
	subb	a,r6
	clr	a
	subb	a,r7
	jc	00104$
;	/home/mr-a-717/.stc/uni-stc/hal/timer-hal.c:74: sysclkDiv1 = 0;
	mov	dptr,#_startTimer_sysclkDiv1_65536_149
	clr	a
	movx	@dptr,a
;	/home/mr-a-717/.stc/uni-stc/hal/timer-hal.c:75: sysclkDivisor /= 12;
	mov	dptr,#__divulong_PARM_2
	mov	a,#0x0c
	movx	@dptr,a
	clr	a
	inc	dptr
	movx	@dptr,a
	inc	dptr
	movx	@dptr,a
	inc	dptr
	movx	@dptr,a
	mov	dpl,r4
	mov	dph,r5
	mov	b,r6
	mov	a,r7
	lcall	__divulong
	mov	r0,dpl
	mov	r1,dph
	mov	r2,b
	mov	r3,a
	mov	dptr,#_startTimer_PARM_2
	mov	a,r0
	movx	@dptr,a
	mov	a,r1
	inc	dptr
	movx	@dptr,a
	mov	a,r2
	inc	dptr
	movx	@dptr,a
	mov	a,r3
	inc	dptr
	movx	@dptr,a
	ljmp	00115$
00104$:
;	/home/mr-a-717/.stc/uni-stc/hal/timer-hal.c:78: rc = TIMER_FREQUENCY_TOO_LOW;
	mov	dptr,#_startTimer_rc_65536_149
	mov	a,#0x02
	movx	@dptr,a
;	/home/mr-a-717/.stc/uni-stc/hal/timer-hal.c:83: break;
	ljmp	00115$
;	/home/mr-a-717/.stc/uni-stc/hal/timer-hal.c:85: default:
00108$:
;	/home/mr-a-717/.stc/uni-stc/hal/timer-hal.c:86: if (sysclkDivisor > COUNTER_MAX) {
	clr	c
	clr	a
	subb	a,r4
	clr	a
	subb	a,r5
	mov	a,#0x01
	subb	a,r6
	clr	a
	subb	a,r7
	jc	00281$
	ljmp	00115$
00281$:
;	/home/mr-a-717/.stc/uni-stc/hal/timer-hal.c:87: prescaler = sysclkDivisor / COUNTER_MAX;
	mov	ar0,r6
	mov	ar1,r7
	mov	dptr,#_startTimer_prescaler_131072_151
	mov	a,r0
	movx	@dptr,a
	mov	a,r1
	inc	dptr
	movx	@dptr,a
;	/home/mr-a-717/.stc/uni-stc/hal/timer-hal.c:89: if (prescaler > PRESCALER_MAX) {
	clr	c
	clr	a
	subb	a,r0
	mov	a,#0x01
	subb	a,r1
	jnc	00110$
;	/home/mr-a-717/.stc/uni-stc/hal/timer-hal.c:90: sysclkDiv1 = 0;
	mov	dptr,#_startTimer_sysclkDiv1_65536_149
	clr	a
	movx	@dptr,a
;	/home/mr-a-717/.stc/uni-stc/hal/timer-hal.c:91: prescaler /= 12;
	mov	dptr,#__divuint_PARM_2
	mov	a,#0x0c
	movx	@dptr,a
	clr	a
	inc	dptr
	movx	@dptr,a
	mov	dpl,r0
	mov	dph,r1
	push	ar7
	push	ar6
	push	ar5
	push	ar4
	lcall	__divuint
	mov	r2,dpl
	mov	r3,dph
	pop	ar4
	pop	ar5
	pop	ar6
	pop	ar7
	mov	dptr,#_startTimer_prescaler_131072_151
	mov	a,r2
	movx	@dptr,a
	mov	a,r3
	inc	dptr
	movx	@dptr,a
;	/home/mr-a-717/.stc/uni-stc/hal/timer-hal.c:92: sysclkDivisor /= 12;
	mov	dptr,#__divulong_PARM_2
	mov	a,#0x0c
	movx	@dptr,a
	clr	a
	inc	dptr
	movx	@dptr,a
	inc	dptr
	movx	@dptr,a
	inc	dptr
	movx	@dptr,a
	mov	dpl,r4
	mov	dph,r5
	mov	b,r6
	mov	a,r7
	lcall	__divulong
	mov	r4,dpl
	mov	r5,dph
	mov	r6,b
	mov	r7,a
	mov	dptr,#_startTimer_PARM_2
	mov	a,r4
	movx	@dptr,a
	mov	a,r5
	inc	dptr
	movx	@dptr,a
	mov	a,r6
	inc	dptr
	movx	@dptr,a
	mov	a,r7
	inc	dptr
	movx	@dptr,a
00110$:
;	/home/mr-a-717/.stc/uni-stc/hal/timer-hal.c:96: if (sysclkDivisor % prescaler) {
	mov	dptr,#_startTimer_prescaler_131072_151
	movx	a,@dptr
	mov	_startTimer_sloc0_1_0,a
	inc	dptr
	movx	a,@dptr
	mov	(_startTimer_sloc0_1_0 + 1),a
	mov	dptr,#_startTimer_PARM_2
	movx	a,@dptr
	mov	r2,a
	inc	dptr
	movx	a,@dptr
	mov	r3,a
	inc	dptr
	movx	a,@dptr
	mov	r4,a
	inc	dptr
	movx	a,@dptr
	mov	r5,a
	mov	dptr,#__modulong_PARM_2
	mov	a,_startTimer_sloc0_1_0
	movx	@dptr,a
	mov	a,(_startTimer_sloc0_1_0 + 1)
	inc	dptr
	movx	@dptr,a
	clr	a
	inc	dptr
	movx	@dptr,a
	inc	dptr
	movx	@dptr,a
	mov	dpl,r2
	mov	dph,r3
	mov	b,r4
	mov	a,r5
	push	ar5
	push	ar4
	push	ar3
	push	ar2
	lcall	__modulong
	mov	r0,dpl
	mov	r1,dph
	mov	r6,b
	mov	r7,a
	pop	ar2
	pop	ar3
	pop	ar4
	pop	ar5
	mov	a,r0
	orl	a,r1
	orl	a,r6
	orl	a,r7
	jz	00112$
;	/home/mr-a-717/.stc/uni-stc/hal/timer-hal.c:97: prescaler++;
	mov	dptr,#_startTimer_prescaler_131072_151
	mov	a,#0x01
	add	a,_startTimer_sloc0_1_0
	movx	@dptr,a
	clr	a
	addc	a,(_startTimer_sloc0_1_0 + 1)
	inc	dptr
	movx	@dptr,a
00112$:
;	/home/mr-a-717/.stc/uni-stc/hal/timer-hal.c:100: sysclkDivisor /= prescaler;
	mov	dptr,#_startTimer_prescaler_131072_151
	movx	a,@dptr
	mov	r6,a
	inc	dptr
	movx	a,@dptr
	mov	r7,a
	mov	dptr,#__divulong_PARM_2
	mov	a,r6
	movx	@dptr,a
	mov	a,r7
	inc	dptr
	movx	@dptr,a
	clr	a
	inc	dptr
	movx	@dptr,a
	inc	dptr
	movx	@dptr,a
	mov	dpl,r2
	mov	dph,r3
	mov	b,r4
	mov	a,r5
	push	ar7
	push	ar6
	lcall	__divulong
	mov	r2,dpl
	mov	r3,dph
	mov	r4,b
	mov	r5,a
	pop	ar6
	pop	ar7
	mov	dptr,#_startTimer_PARM_2
	mov	a,r2
	movx	@dptr,a
	mov	a,r3
	inc	dptr
	movx	@dptr,a
	mov	a,r4
	inc	dptr
	movx	@dptr,a
	mov	a,r5
	inc	dptr
	movx	@dptr,a
;	/home/mr-a-717/.stc/uni-stc/hal/timer-hal.c:103: prescaler--;
	dec	r6
	cjne	r6,#0xff,00284$
	dec	r7
00284$:
	mov	dptr,#_startTimer_prescaler_131072_151
	mov	a,r6
	movx	@dptr,a
	mov	a,r7
	inc	dptr
	movx	@dptr,a
;	/home/mr-a-717/.stc/uni-stc/hal/timer-hal.c:106: }
00115$:
;	/home/mr-a-717/.stc/uni-stc/hal/timer-hal.c:108: switch (timer) {
	mov	dptr,#_startTimer_timer_65536_148
	movx	a,@dptr
	mov	r7,a
	cjne	r7,#0x02,00285$
	sjmp	00116$
00285$:
	cjne	r7,#0x03,00286$
	sjmp	00117$
00286$:
;	/home/mr-a-717/.stc/uni-stc/hal/timer-hal.c:110: case TIMER2:
	cjne	r7,#0x04,00122$
	sjmp	00118$
00116$:
;	/home/mr-a-717/.stc/uni-stc/hal/timer-hal.c:111: TM2PS = prescaler;
	mov	dptr,#_startTimer_prescaler_131072_151
	movx	a,@dptr
	mov	r6,a
	inc	dptr
	movx	a,@dptr
	mov	r7,a
	mov	dptr,#_TM2PS
	mov	a,r6
	movx	@dptr,a
;	/home/mr-a-717/.stc/uni-stc/hal/timer-hal.c:112: break;
;	/home/mr-a-717/.stc/uni-stc/hal/timer-hal.c:116: case TIMER3:
	sjmp	00122$
00117$:
;	/home/mr-a-717/.stc/uni-stc/hal/timer-hal.c:117: TM3PS = prescaler;
	mov	dptr,#_startTimer_prescaler_131072_151
	movx	a,@dptr
	mov	r6,a
	inc	dptr
	movx	a,@dptr
	mov	r7,a
	mov	dptr,#_TM3PS
	mov	a,r6
	movx	@dptr,a
;	/home/mr-a-717/.stc/uni-stc/hal/timer-hal.c:118: break;
;	/home/mr-a-717/.stc/uni-stc/hal/timer-hal.c:120: case TIMER4:
	sjmp	00122$
00118$:
;	/home/mr-a-717/.stc/uni-stc/hal/timer-hal.c:121: TM4PS = prescaler;
	mov	dptr,#_startTimer_prescaler_131072_151
	movx	a,@dptr
	mov	r6,a
	inc	dptr
	movx	a,@dptr
	mov	r7,a
	mov	dptr,#_TM4PS
	mov	a,r6
	movx	@dptr,a
;	/home/mr-a-717/.stc/uni-stc/hal/timer-hal.c:130: }
00122$:
;	/home/mr-a-717/.stc/uni-stc/hal/timer-hal.c:134: if (rc == TIMER_FREQUENCY_OK) {
	mov	dptr,#_startTimer_rc_65536_149
	movx	a,@dptr
	jz	00288$
	ljmp	00160$
00288$:
;	/home/mr-a-717/.stc/uni-stc/hal/timer-hal.c:135: uint16_t reloadValue = (uint16_t) (COUNTER_MAX - sysclkDivisor);
	mov	dptr,#_startTimer_PARM_2
	movx	a,@dptr
	mov	r4,a
	inc	dptr
	movx	a,@dptr
	mov	r5,a
	inc	dptr
	movx	a,@dptr
	inc	dptr
	movx	a,@dptr
	clr	c
	clr	a
	subb	a,r4
	mov	r6,a
	clr	a
	subb	a,r5
	mov	r7,a
;	/home/mr-a-717/.stc/uni-stc/hal/timer-hal.c:137: switch (timer) {
	mov	dptr,#_startTimer_timer_65536_148
	movx	a,@dptr
	mov  r5,a
	add	a,#0xff - 0x04
	jnc	00289$
	ljmp	00160$
00289$:
	mov	a,r5
	add	a,r5
	add	a,r5
	mov	dptr,#00290$
	jmp	@a+dptr
00290$:
	ljmp	00123$
	ljmp	00130$
	ljmp	00137$
	ljmp	00144$
	ljmp	00151$
;	/home/mr-a-717/.stc/uni-stc/hal/timer-hal.c:138: case TIMER0:
00123$:
;	/home/mr-a-717/.stc/uni-stc/hal/timer-hal.c:141: AUXR = (AUXR & ~M_T0x12) | ((sysclkDiv1 << P_T0x12) & M_T0x12);
	mov	a,#0x7f
	anl	a,_AUXR
	mov	r5,a
	mov	dptr,#_startTimer_sysclkDiv1_65536_149
	movx	a,@dptr
	rr	a
	anl	a,#0x80
	mov	r4,a
	mov	a,#0x80
	anl	a,r4
	orl	a,r5
	mov	_AUXR,a
;	/home/mr-a-717/.stc/uni-stc/hal/timer-hal.c:145: TMOD &= 0xf0;
	anl	_TMOD,#0xf0
;	/home/mr-a-717/.stc/uni-stc/hal/timer-hal.c:148: TMOD = (TMOD & ~M_T0_GATE) | ((timerControl << P_T0_GATE) & M_T0_GATE);
	mov	a,#0xf7
	anl	a,_TMOD
	mov	r5,a
	mov	dptr,#_startTimer_PARM_5
	movx	a,@dptr
	swap	a
	rr	a
	anl	a,#0xf8
	mov	r4,a
	mov	a,#0x08
	anl	a,r4
	orl	a,r5
	mov	_TMOD,a
;	/home/mr-a-717/.stc/uni-stc/hal/timer-hal.c:162: if (enableOutput == ENABLE_OUTPUT) {
	mov	dptr,#_startTimer_PARM_3
	movx	a,@dptr
	mov	r5,a
	cjne	r5,#0x01,00125$
;	/home/mr-a-717/.stc/uni-stc/hal/timer-hal.c:163: INT_CLKO |= M_T0CLKO;
	orl	_INT_CLKO,#0x01
	sjmp	00126$
00125$:
;	/home/mr-a-717/.stc/uni-stc/hal/timer-hal.c:165: INT_CLKO &= ~M_T0CLKO;
	anl	_INT_CLKO,#0xfe
00126$:
;	/home/mr-a-717/.stc/uni-stc/hal/timer-hal.c:168: T0 = reloadValue;
	mov	((_T0 >> 0) & 0xFF),r6
	mov	((_T0 >> 8) & 0xFF),r7
;	/home/mr-a-717/.stc/uni-stc/hal/timer-hal.c:171: if (enableInterrupt == ENABLE_INTERRUPT) {
	mov	dptr,#_startTimer_PARM_4
	movx	a,@dptr
	mov	r5,a
	cjne	r5,#0x01,00128$
;	/home/mr-a-717/.stc/uni-stc/hal/timer-hal.c:172: IE1 |= M_T0IE;
	orl	_IE1,#0x02
	sjmp	00129$
00128$:
;	/home/mr-a-717/.stc/uni-stc/hal/timer-hal.c:174: IE1 &= ~M_T0IE;
	anl	_IE1,#0xfd
00129$:
;	/home/mr-a-717/.stc/uni-stc/hal/timer-hal.c:178: TCON |= M_T0RUN;
	orl	_TCON,#0x10
;	/home/mr-a-717/.stc/uni-stc/hal/timer-hal.c:179: break;
	ljmp	00160$
;	/home/mr-a-717/.stc/uni-stc/hal/timer-hal.c:182: case TIMER1:
00130$:
;	/home/mr-a-717/.stc/uni-stc/hal/timer-hal.c:197: TMOD &= 0x0f;
	anl	_TMOD,#0x0f
;	/home/mr-a-717/.stc/uni-stc/hal/timer-hal.c:200: if (enableOutput == ENABLE_OUTPUT) {
	mov	dptr,#_startTimer_PARM_3
	movx	a,@dptr
	mov	r5,a
	cjne	r5,#0x01,00132$
;	/home/mr-a-717/.stc/uni-stc/hal/timer-hal.c:201: INT_CLKO |= M_T1CLKO;
	orl	_INT_CLKO,#0x02
	sjmp	00133$
00132$:
;	/home/mr-a-717/.stc/uni-stc/hal/timer-hal.c:203: INT_CLKO &= ~M_T1CLKO;
	anl	_INT_CLKO,#0xfd
00133$:
;	/home/mr-a-717/.stc/uni-stc/hal/timer-hal.c:208: T1 = reloadValue;
	mov	((_T1 >> 0) & 0xFF),r6
	mov	((_T1 >> 8) & 0xFF),r7
;	/home/mr-a-717/.stc/uni-stc/hal/timer-hal.c:212: TMOD = (TMOD & ~M_T1_GATE) | ((timerControl << P_T1_GATE) & M_T1_GATE);
	mov	a,#0x7f
	anl	a,_TMOD
	mov	r5,a
	mov	dptr,#_startTimer_PARM_5
	movx	a,@dptr
	rr	a
	anl	a,#0x80
	mov	r4,a
	mov	a,#0x80
	anl	a,r4
	orl	a,r5
	mov	_TMOD,a
;	/home/mr-a-717/.stc/uni-stc/hal/timer-hal.c:216: AUXR = (sysclkDiv1) ? (AUXR | M_T1x12) : (AUXR & ~M_T1x12);
	mov	dptr,#_startTimer_sysclkDiv1_65536_149
	movx	a,@dptr
	jz	00163$
	mov	r4,_AUXR
	mov	r5,#0x00
	orl	ar4,#0x40
	sjmp	00164$
00163$:
	mov	a,#0xbf
	anl	a,_AUXR
	mov	r3,a
	mov	r4,a
	mov	r5,#0x00
00164$:
	mov	_AUXR,r4
;	/home/mr-a-717/.stc/uni-stc/hal/timer-hal.c:219: if (enableInterrupt == ENABLE_INTERRUPT) {
	mov	dptr,#_startTimer_PARM_4
	movx	a,@dptr
	mov	r5,a
	cjne	r5,#0x01,00135$
;	/home/mr-a-717/.stc/uni-stc/hal/timer-hal.c:220: IE1 |= M_T1IE;
	orl	_IE1,#0x08
	sjmp	00136$
00135$:
;	/home/mr-a-717/.stc/uni-stc/hal/timer-hal.c:222: IE1 &= ~M_T1IE;
	anl	_IE1,#0xf7
00136$:
;	/home/mr-a-717/.stc/uni-stc/hal/timer-hal.c:226: TCON |= M_T1RUN;
	orl	_TCON,#0x40
;	/home/mr-a-717/.stc/uni-stc/hal/timer-hal.c:227: break;
	ljmp	00160$
;	/home/mr-a-717/.stc/uni-stc/hal/timer-hal.c:231: case TIMER2:
00137$:
;	/home/mr-a-717/.stc/uni-stc/hal/timer-hal.c:234: AUXR &= ~M_T2_C_T;
	anl	_AUXR,#0xf7
;	/home/mr-a-717/.stc/uni-stc/hal/timer-hal.c:236: if (enableOutput == ENABLE_OUTPUT) {
	mov	dptr,#_startTimer_PARM_3
	movx	a,@dptr
	mov	r5,a
	cjne	r5,#0x01,00139$
;	/home/mr-a-717/.stc/uni-stc/hal/timer-hal.c:237: INT_CLKO |= M_T2CLKO;
	orl	_INT_CLKO,#0x04
	sjmp	00140$
00139$:
;	/home/mr-a-717/.stc/uni-stc/hal/timer-hal.c:239: INT_CLKO &= ~M_T2CLKO;
	anl	_INT_CLKO,#0xfb
00140$:
;	/home/mr-a-717/.stc/uni-stc/hal/timer-hal.c:243: T2 = reloadValue;
	mov	((_T2 >> 0) & 0xFF),r6
	mov	((_T2 >> 8) & 0xFF),r7
;	/home/mr-a-717/.stc/uni-stc/hal/timer-hal.c:258: AUXR = (sysclkDiv1) ? (AUXR | M_T2x12) : (AUXR & ~M_T2x12);
	mov	dptr,#_startTimer_sysclkDiv1_65536_149
	movx	a,@dptr
	jz	00165$
	mov	r4,_AUXR
	mov	r5,#0x00
	orl	ar4,#0x04
	sjmp	00166$
00165$:
	mov	a,#0xfb
	anl	a,_AUXR
	mov	r3,a
	mov	r4,a
	mov	r5,#0x00
00166$:
	mov	_AUXR,r4
;	/home/mr-a-717/.stc/uni-stc/hal/timer-hal.c:261: if (enableInterrupt == ENABLE_INTERRUPT) {
	mov	dptr,#_startTimer_PARM_4
	movx	a,@dptr
	mov	r5,a
	cjne	r5,#0x01,00142$
;	/home/mr-a-717/.stc/uni-stc/hal/timer-hal.c:262: IE2 |= M_T2IE;
	orl	_IE2,#0x04
	sjmp	00143$
00142$:
;	/home/mr-a-717/.stc/uni-stc/hal/timer-hal.c:264: IE2 &= ~M_T2IE;
	anl	_IE2,#0xfb
00143$:
;	/home/mr-a-717/.stc/uni-stc/hal/timer-hal.c:269: AUXR |= M_T2RUN;
	orl	_AUXR,#0x10
;	/home/mr-a-717/.stc/uni-stc/hal/timer-hal.c:270: break;
	ljmp	00160$
;	/home/mr-a-717/.stc/uni-stc/hal/timer-hal.c:274: case TIMER3:
00144$:
;	/home/mr-a-717/.stc/uni-stc/hal/timer-hal.c:276: T4T3M &= ~M_T3_C_T;
	anl	_T4T3M,#0xfb
;	/home/mr-a-717/.stc/uni-stc/hal/timer-hal.c:278: if (enableOutput == ENABLE_OUTPUT) {
	mov	dptr,#_startTimer_PARM_3
	movx	a,@dptr
	mov	r5,a
	cjne	r5,#0x01,00146$
;	/home/mr-a-717/.stc/uni-stc/hal/timer-hal.c:279: T4T3M |= M_T3CLKO;
	orl	_T4T3M,#0x01
	sjmp	00147$
00146$:
;	/home/mr-a-717/.stc/uni-stc/hal/timer-hal.c:281: T4T3M &= ~M_T3CLKO;
	anl	_T4T3M,#0xfe
00147$:
;	/home/mr-a-717/.stc/uni-stc/hal/timer-hal.c:285: T4T3M = (sysclkDiv1) ? (T4T3M | M_T3x12) : (T4T3M & ~M_T3x12);
	mov	dptr,#_startTimer_sysclkDiv1_65536_149
	movx	a,@dptr
	jz	00167$
	mov	r4,_T4T3M
	mov	r5,#0x00
	orl	ar4,#0x02
	sjmp	00168$
00167$:
	mov	a,#0xfd
	anl	a,_T4T3M
	mov	r3,a
	mov	r4,a
	mov	r5,#0x00
00168$:
	mov	_T4T3M,r4
;	/home/mr-a-717/.stc/uni-stc/hal/timer-hal.c:288: T3 = reloadValue;
	mov	((_T3 >> 0) & 0xFF),r6
	mov	((_T3 >> 8) & 0xFF),r7
;	/home/mr-a-717/.stc/uni-stc/hal/timer-hal.c:290: if (enableInterrupt == ENABLE_INTERRUPT) {
	mov	dptr,#_startTimer_PARM_4
	movx	a,@dptr
	mov	r5,a
	cjne	r5,#0x01,00149$
;	/home/mr-a-717/.stc/uni-stc/hal/timer-hal.c:291: IE2 |= M_T3IE;
	orl	_IE2,#0x20
	sjmp	00150$
00149$:
;	/home/mr-a-717/.stc/uni-stc/hal/timer-hal.c:293: IE2 &= ~M_T3IE;
	anl	_IE2,#0xdf
00150$:
;	/home/mr-a-717/.stc/uni-stc/hal/timer-hal.c:297: T4T3M |= M_T3RUN;
	orl	_T4T3M,#0x08
;	/home/mr-a-717/.stc/uni-stc/hal/timer-hal.c:298: break;
;	/home/mr-a-717/.stc/uni-stc/hal/timer-hal.c:300: case TIMER4:
	sjmp	00160$
00151$:
;	/home/mr-a-717/.stc/uni-stc/hal/timer-hal.c:302: T4T3M &= ~M_T4_C_T;
	anl	_T4T3M,#0xbf
;	/home/mr-a-717/.stc/uni-stc/hal/timer-hal.c:304: if (enableOutput == ENABLE_OUTPUT) {
	mov	dptr,#_startTimer_PARM_3
	movx	a,@dptr
	mov	r5,a
	cjne	r5,#0x01,00153$
;	/home/mr-a-717/.stc/uni-stc/hal/timer-hal.c:305: T4T3M |= M_T4CLKO;
	orl	_T4T3M,#0x10
	sjmp	00154$
00153$:
;	/home/mr-a-717/.stc/uni-stc/hal/timer-hal.c:307: T4T3M &= ~M_T4CLKO;
	anl	_T4T3M,#0xef
00154$:
;	/home/mr-a-717/.stc/uni-stc/hal/timer-hal.c:311: T4T3M = (sysclkDiv1) ? (T4T3M | M_T4x12) : (T4T3M & ~M_T4x12);
	mov	dptr,#_startTimer_sysclkDiv1_65536_149
	movx	a,@dptr
	jz	00169$
	mov	r4,_T4T3M
	mov	r5,#0x00
	orl	ar4,#0x20
	sjmp	00170$
00169$:
	mov	a,#0xdf
	anl	a,_T4T3M
	mov	r3,a
	mov	r4,a
	mov	r5,#0x00
00170$:
	mov	_T4T3M,r4
;	/home/mr-a-717/.stc/uni-stc/hal/timer-hal.c:314: T4 = reloadValue;
	mov	((_T4 >> 0) & 0xFF),r6
	mov	((_T4 >> 8) & 0xFF),r7
;	/home/mr-a-717/.stc/uni-stc/hal/timer-hal.c:316: if (enableInterrupt == ENABLE_INTERRUPT) {
	mov	dptr,#_startTimer_PARM_4
	movx	a,@dptr
	mov	r7,a
	cjne	r7,#0x01,00156$
;	/home/mr-a-717/.stc/uni-stc/hal/timer-hal.c:317: IE2 |= M_T4IE;
	orl	_IE2,#0x40
	sjmp	00157$
00156$:
;	/home/mr-a-717/.stc/uni-stc/hal/timer-hal.c:319: IE2 &= ~M_T4IE;
	anl	_IE2,#0xbf
00157$:
;	/home/mr-a-717/.stc/uni-stc/hal/timer-hal.c:323: T4T3M |= M_T4RUN;
	orl	_T4T3M,#0x80
;	/home/mr-a-717/.stc/uni-stc/hal/timer-hal.c:355: }
00160$:
;	/home/mr-a-717/.stc/uni-stc/hal/timer-hal.c:358: return rc;
	mov	dptr,#_startTimer_rc_65536_149
	movx	a,@dptr
;	/home/mr-a-717/.stc/uni-stc/hal/timer-hal.c:359: }
	mov	dpl,a
	ret
;------------------------------------------------------------
;Allocation info for local variables in function 'stopTimer'
;------------------------------------------------------------
;timer                     Allocated with name '_stopTimer_timer_65536_182'
;counterValue              Allocated with name '_stopTimer_counterValue_65536_183'
;------------------------------------------------------------
;	/home/mr-a-717/.stc/uni-stc/hal/timer-hal.c:367: uint16_t stopTimer(Timer timer) {
;	-----------------------------------------
;	 function stopTimer
;	-----------------------------------------
_stopTimer:
	mov	a,dpl
	mov	dptr,#_stopTimer_timer_65536_182
	movx	@dptr,a
;	/home/mr-a-717/.stc/uni-stc/hal/timer-hal.c:368: uint16_t counterValue = 0;
	mov	dptr,#_stopTimer_counterValue_65536_183
	clr	a
	movx	@dptr,a
	inc	dptr
	movx	@dptr,a
;	/home/mr-a-717/.stc/uni-stc/hal/timer-hal.c:370: switch (timer) {
	mov	dptr,#_stopTimer_timer_65536_182
	movx	a,@dptr
	mov  r7,a
	add	a,#0xff - 0x04
	jc	00106$
	mov	a,r7
	add	a,r7
;	/home/mr-a-717/.stc/uni-stc/hal/timer-hal.c:371: case TIMER0:
	mov	dptr,#00114$
	jmp	@a+dptr
00114$:
	sjmp	00101$
	sjmp	00102$
	sjmp	00103$
	sjmp	00104$
	sjmp	00105$
00101$:
;	/home/mr-a-717/.stc/uni-stc/hal/timer-hal.c:373: TCON &= ~M_T0RUN;
	anl	_TCON,#0xef
;	/home/mr-a-717/.stc/uni-stc/hal/timer-hal.c:378: counterValue = T0;
	mov	dptr,#_stopTimer_counterValue_65536_183
	mov	a,((_T0 >> 0) & 0xFF)
	movx	@dptr,a
	mov	a,((_T0 >> 8) & 0xFF)
	inc	dptr
	movx	@dptr,a
;	/home/mr-a-717/.stc/uni-stc/hal/timer-hal.c:384: INT_CLKO &= ~M_T0CLKO;
	anl	_INT_CLKO,#0xfe
;	/home/mr-a-717/.stc/uni-stc/hal/timer-hal.c:386: break;
;	/home/mr-a-717/.stc/uni-stc/hal/timer-hal.c:389: case TIMER1:
	sjmp	00106$
00102$:
;	/home/mr-a-717/.stc/uni-stc/hal/timer-hal.c:391: TCON &= ~M_T1RUN;
	anl	_TCON,#0xbf
;	/home/mr-a-717/.stc/uni-stc/hal/timer-hal.c:396: counterValue = T1;
	mov	dptr,#_stopTimer_counterValue_65536_183
	mov	a,((_T1 >> 0) & 0xFF)
	movx	@dptr,a
	mov	a,((_T1 >> 8) & 0xFF)
	inc	dptr
	movx	@dptr,a
;	/home/mr-a-717/.stc/uni-stc/hal/timer-hal.c:402: INT_CLKO &= ~M_T1CLKO;
	anl	_INT_CLKO,#0xfd
;	/home/mr-a-717/.stc/uni-stc/hal/timer-hal.c:404: break;
;	/home/mr-a-717/.stc/uni-stc/hal/timer-hal.c:408: case TIMER2:
	sjmp	00106$
00103$:
;	/home/mr-a-717/.stc/uni-stc/hal/timer-hal.c:410: AUXR &= ~M_T2RUN;
	anl	_AUXR,#0xef
;	/home/mr-a-717/.stc/uni-stc/hal/timer-hal.c:413: counterValue = T2;
	mov	dptr,#_stopTimer_counterValue_65536_183
	mov	a,((_T2 >> 0) & 0xFF)
	movx	@dptr,a
	mov	a,((_T2 >> 8) & 0xFF)
	inc	dptr
	movx	@dptr,a
;	/home/mr-a-717/.stc/uni-stc/hal/timer-hal.c:420: INT_CLKO &= ~M_T2CLKO;
	anl	_INT_CLKO,#0xfb
;	/home/mr-a-717/.stc/uni-stc/hal/timer-hal.c:425: break;
;	/home/mr-a-717/.stc/uni-stc/hal/timer-hal.c:429: case TIMER3:
	sjmp	00106$
00104$:
;	/home/mr-a-717/.stc/uni-stc/hal/timer-hal.c:431: T4T3M &= ~M_T3RUN;
	anl	_T4T3M,#0xf7
;	/home/mr-a-717/.stc/uni-stc/hal/timer-hal.c:433: counterValue = T3;
	mov	dptr,#_stopTimer_counterValue_65536_183
	mov	a,((_T3 >> 0) & 0xFF)
	movx	@dptr,a
	mov	a,((_T3 >> 8) & 0xFF)
	inc	dptr
	movx	@dptr,a
;	/home/mr-a-717/.stc/uni-stc/hal/timer-hal.c:435: T4T3M &= ~M_T3CLKO;
	anl	_T4T3M,#0xfe
;	/home/mr-a-717/.stc/uni-stc/hal/timer-hal.c:436: break;
;	/home/mr-a-717/.stc/uni-stc/hal/timer-hal.c:438: case TIMER4:
	sjmp	00106$
00105$:
;	/home/mr-a-717/.stc/uni-stc/hal/timer-hal.c:440: T4T3M &= ~M_T4RUN;
	anl	_T4T3M,#0x7f
;	/home/mr-a-717/.stc/uni-stc/hal/timer-hal.c:442: counterValue = T4;
	mov	dptr,#_stopTimer_counterValue_65536_183
	mov	a,((_T4 >> 0) & 0xFF)
	movx	@dptr,a
	mov	a,((_T4 >> 8) & 0xFF)
	inc	dptr
	movx	@dptr,a
;	/home/mr-a-717/.stc/uni-stc/hal/timer-hal.c:444: T4T3M &= ~M_T4CLKO;
	anl	_T4T3M,#0xef
;	/home/mr-a-717/.stc/uni-stc/hal/timer-hal.c:458: }
00106$:
;	/home/mr-a-717/.stc/uni-stc/hal/timer-hal.c:460: return counterValue;
	mov	dptr,#_stopTimer_counterValue_65536_183
	movx	a,@dptr
	mov	r6,a
	inc	dptr
	movx	a,@dptr
;	/home/mr-a-717/.stc/uni-stc/hal/timer-hal.c:461: }
	mov	dpl,r6
	mov	dph,a
	ret
	.area CSEG    (CODE)
	.area CONST   (CODE)
_FONTS:
	.db #0x00	; 0
	.db #0x00	; 0
	.db #0x00	; 0
	.db #0x00	; 0
	.db #0x00	; 0
	.db #0x81	; 129
	.db #0x81	; 129
	.db #0x18	; 24
	.db #0x81	; 129
	.db #0x81	; 129
	.db #0x00	; 0
	.db #0x07	; 7
	.db #0x00	; 0
	.db #0x07	; 7
	.db #0x00	; 0
	.db #0x14	; 20
	.db #0x7f	; 127
	.db #0x14	; 20
	.db #0x7f	; 127
	.db #0x14	; 20
	.db #0x24	; 36
	.db #0x2a	; 42
	.db #0x7f	; 127
	.db #0x2a	; 42
	.db #0x12	; 18
	.db #0x23	; 35
	.db #0x13	; 19
	.db #0x08	; 8
	.db #0x64	; 100	'd'
	.db #0x62	; 98	'b'
	.db #0x36	; 54	'6'
	.db #0x49	; 73	'I'
	.db #0x55	; 85	'U'
	.db #0x22	; 34
	.db #0x50	; 80	'P'
	.db #0x00	; 0
	.db #0x05	; 5
	.db #0x03	; 3
	.db #0x00	; 0
	.db #0x00	; 0
	.db #0x00	; 0
	.db #0x1c	; 28
	.db #0x22	; 34
	.db #0x41	; 65	'A'
	.db #0x00	; 0
	.db #0x00	; 0
	.db #0x41	; 65	'A'
	.db #0x22	; 34
	.db #0x1c	; 28
	.db #0x00	; 0
	.db #0x14	; 20
	.db #0x08	; 8
	.db #0x3e	; 62
	.db #0x08	; 8
	.db #0x14	; 20
	.db #0x08	; 8
	.db #0x08	; 8
	.db #0x3e	; 62
	.db #0x08	; 8
	.db #0x08	; 8
	.db #0x00	; 0
	.db #0x50	; 80	'P'
	.db #0x30	; 48	'0'
	.db #0x00	; 0
	.db #0x00	; 0
	.db #0x08	; 8
	.db #0x08	; 8
	.db #0x08	; 8
	.db #0x08	; 8
	.db #0x08	; 8
	.db #0x00	; 0
	.db #0x60	; 96
	.db #0x60	; 96
	.db #0x00	; 0
	.db #0x00	; 0
	.db #0x20	; 32
	.db #0x10	; 16
	.db #0x08	; 8
	.db #0x04	; 4
	.db #0x02	; 2
	.db #0x3e	; 62
	.db #0x51	; 81	'Q'
	.db #0x49	; 73	'I'
	.db #0x45	; 69	'E'
	.db #0x3e	; 62
	.db #0x00	; 0
	.db #0x42	; 66	'B'
	.db #0x7f	; 127
	.db #0x40	; 64
	.db #0x00	; 0
	.db #0x42	; 66	'B'
	.db #0x61	; 97	'a'
	.db #0x51	; 81	'Q'
	.db #0x49	; 73	'I'
	.db #0x46	; 70	'F'
	.db #0x21	; 33
	.db #0x41	; 65	'A'
	.db #0x45	; 69	'E'
	.db #0x4b	; 75	'K'
	.db #0x31	; 49	'1'
	.db #0x18	; 24
	.db #0x14	; 20
	.db #0x12	; 18
	.db #0x7f	; 127
	.db #0x10	; 16
	.db #0x27	; 39
	.db #0x45	; 69	'E'
	.db #0x45	; 69	'E'
	.db #0x45	; 69	'E'
	.db #0x39	; 57	'9'
	.db #0x3c	; 60
	.db #0x4a	; 74	'J'
	.db #0x49	; 73	'I'
	.db #0x49	; 73	'I'
	.db #0x30	; 48	'0'
	.db #0x01	; 1
	.db #0x71	; 113	'q'
	.db #0x09	; 9
	.db #0x05	; 5
	.db #0x03	; 3
	.db #0x36	; 54	'6'
	.db #0x49	; 73	'I'
	.db #0x49	; 73	'I'
	.db #0x49	; 73	'I'
	.db #0x36	; 54	'6'
	.db #0x06	; 6
	.db #0x49	; 73	'I'
	.db #0x49	; 73	'I'
	.db #0x29	; 41
	.db #0x1e	; 30
	.db #0x00	; 0
	.db #0x36	; 54	'6'
	.db #0x36	; 54	'6'
	.db #0x00	; 0
	.db #0x00	; 0
	.db #0x00	; 0
	.db #0x56	; 86	'V'
	.db #0x36	; 54	'6'
	.db #0x00	; 0
	.db #0x00	; 0
	.db #0x08	; 8
	.db #0x14	; 20
	.db #0x22	; 34
	.db #0x41	; 65	'A'
	.db #0x00	; 0
	.db #0x14	; 20
	.db #0x14	; 20
	.db #0x14	; 20
	.db #0x14	; 20
	.db #0x14	; 20
	.db #0x00	; 0
	.db #0x41	; 65	'A'
	.db #0x22	; 34
	.db #0x14	; 20
	.db #0x08	; 8
	.db #0x02	; 2
	.db #0x01	; 1
	.db #0x51	; 81	'Q'
	.db #0x09	; 9
	.db #0x06	; 6
	.db #0x32	; 50	'2'
	.db #0x49	; 73	'I'
	.db #0x79	; 121	'y'
	.db #0x41	; 65	'A'
	.db #0x3e	; 62
	.db #0x7e	; 126
	.db #0x11	; 17
	.db #0x11	; 17
	.db #0x11	; 17
	.db #0x7e	; 126
	.db #0x7f	; 127
	.db #0x49	; 73	'I'
	.db #0x49	; 73	'I'
	.db #0x49	; 73	'I'
	.db #0x36	; 54	'6'
	.db #0x3e	; 62
	.db #0x41	; 65	'A'
	.db #0x41	; 65	'A'
	.db #0x41	; 65	'A'
	.db #0x22	; 34
	.db #0x7f	; 127
	.db #0x41	; 65	'A'
	.db #0x41	; 65	'A'
	.db #0x22	; 34
	.db #0x1c	; 28
	.db #0x7f	; 127
	.db #0x49	; 73	'I'
	.db #0x49	; 73	'I'
	.db #0x49	; 73	'I'
	.db #0x41	; 65	'A'
	.db #0x7f	; 127
	.db #0x09	; 9
	.db #0x09	; 9
	.db #0x09	; 9
	.db #0x01	; 1
	.db #0x3e	; 62
	.db #0x41	; 65	'A'
	.db #0x49	; 73	'I'
	.db #0x49	; 73	'I'
	.db #0x7a	; 122	'z'
	.db #0x7f	; 127
	.db #0x08	; 8
	.db #0x08	; 8
	.db #0x08	; 8
	.db #0x7f	; 127
	.db #0x00	; 0
	.db #0x41	; 65	'A'
	.db #0x7f	; 127
	.db #0x41	; 65	'A'
	.db #0x00	; 0
	.db #0x20	; 32
	.db #0x40	; 64
	.db #0x41	; 65	'A'
	.db #0x3f	; 63
	.db #0x01	; 1
	.db #0x7f	; 127
	.db #0x08	; 8
	.db #0x14	; 20
	.db #0x22	; 34
	.db #0x41	; 65	'A'
	.db #0x7f	; 127
	.db #0x40	; 64
	.db #0x40	; 64
	.db #0x40	; 64
	.db #0x40	; 64
	.db #0x7f	; 127
	.db #0x02	; 2
	.db #0x0c	; 12
	.db #0x02	; 2
	.db #0x7f	; 127
	.db #0x7f	; 127
	.db #0x04	; 4
	.db #0x08	; 8
	.db #0x10	; 16
	.db #0x7f	; 127
	.db #0x3e	; 62
	.db #0x41	; 65	'A'
	.db #0x41	; 65	'A'
	.db #0x41	; 65	'A'
	.db #0x3e	; 62
	.db #0x7f	; 127
	.db #0x09	; 9
	.db #0x09	; 9
	.db #0x09	; 9
	.db #0x06	; 6
	.db #0x3e	; 62
	.db #0x41	; 65	'A'
	.db #0x51	; 81	'Q'
	.db #0x21	; 33
	.db #0x5e	; 94
	.db #0x7f	; 127
	.db #0x09	; 9
	.db #0x19	; 25
	.db #0x29	; 41
	.db #0x46	; 70	'F'
	.db #0x46	; 70	'F'
	.db #0x49	; 73	'I'
	.db #0x49	; 73	'I'
	.db #0x49	; 73	'I'
	.db #0x31	; 49	'1'
	.db #0x01	; 1
	.db #0x01	; 1
	.db #0x7f	; 127
	.db #0x01	; 1
	.db #0x01	; 1
	.db #0x3f	; 63
	.db #0x40	; 64
	.db #0x40	; 64
	.db #0x40	; 64
	.db #0x3f	; 63
	.db #0x1f	; 31
	.db #0x20	; 32
	.db #0x40	; 64
	.db #0x20	; 32
	.db #0x1f	; 31
	.db #0x3f	; 63
	.db #0x40	; 64
	.db #0x38	; 56	'8'
	.db #0x40	; 64
	.db #0x3f	; 63
	.db #0x63	; 99	'c'
	.db #0x14	; 20
	.db #0x08	; 8
	.db #0x14	; 20
	.db #0x63	; 99	'c'
	.db #0x07	; 7
	.db #0x08	; 8
	.db #0x70	; 112	'p'
	.db #0x08	; 8
	.db #0x07	; 7
	.db #0x61	; 97	'a'
	.db #0x51	; 81	'Q'
	.db #0x49	; 73	'I'
	.db #0x45	; 69	'E'
	.db #0x43	; 67	'C'
	.db #0x00	; 0
	.db #0x7f	; 127
	.db #0x41	; 65	'A'
	.db #0x41	; 65	'A'
	.db #0x00	; 0
	.db #0x02	; 2
	.db #0x04	; 4
	.db #0x08	; 8
	.db #0x10	; 16
	.db #0x20	; 32
	.db #0x00	; 0
	.db #0x41	; 65	'A'
	.db #0x41	; 65	'A'
	.db #0x7f	; 127
	.db #0x00	; 0
	.db #0x04	; 4
	.db #0x02	; 2
	.db #0x01	; 1
	.db #0x02	; 2
	.db #0x04	; 4
	.db #0x40	; 64
	.db #0x40	; 64
	.db #0x40	; 64
	.db #0x40	; 64
	.db #0x40	; 64
	.db #0x00	; 0
	.db #0x01	; 1
	.db #0x02	; 2
	.db #0x04	; 4
	.db #0x00	; 0
	.db #0x20	; 32
	.db #0x54	; 84	'T'
	.db #0x54	; 84	'T'
	.db #0x54	; 84	'T'
	.db #0x78	; 120	'x'
	.db #0x7f	; 127
	.db #0x48	; 72	'H'
	.db #0x44	; 68	'D'
	.db #0x44	; 68	'D'
	.db #0x38	; 56	'8'
	.db #0x38	; 56	'8'
	.db #0x44	; 68	'D'
	.db #0x44	; 68	'D'
	.db #0x44	; 68	'D'
	.db #0x20	; 32
	.db #0x38	; 56	'8'
	.db #0x44	; 68	'D'
	.db #0x44	; 68	'D'
	.db #0x48	; 72	'H'
	.db #0x7f	; 127
	.db #0x38	; 56	'8'
	.db #0x54	; 84	'T'
	.db #0x54	; 84	'T'
	.db #0x54	; 84	'T'
	.db #0x18	; 24
	.db #0x08	; 8
	.db #0x7e	; 126
	.db #0x09	; 9
	.db #0x01	; 1
	.db #0x02	; 2
	.db #0x0c	; 12
	.db #0x52	; 82	'R'
	.db #0x52	; 82	'R'
	.db #0x52	; 82	'R'
	.db #0x3e	; 62
	.db #0x7f	; 127
	.db #0x08	; 8
	.db #0x04	; 4
	.db #0x04	; 4
	.db #0x78	; 120	'x'
	.db #0x00	; 0
	.db #0x44	; 68	'D'
	.db #0x7d	; 125
	.db #0x40	; 64
	.db #0x00	; 0
	.db #0x20	; 32
	.db #0x40	; 64
	.db #0x44	; 68	'D'
	.db #0x3d	; 61
	.db #0x00	; 0
	.db #0x7f	; 127
	.db #0x10	; 16
	.db #0x28	; 40
	.db #0x44	; 68	'D'
	.db #0x00	; 0
	.db #0x00	; 0
	.db #0x41	; 65	'A'
	.db #0x7f	; 127
	.db #0x40	; 64
	.db #0x00	; 0
	.db #0x7c	; 124
	.db #0x04	; 4
	.db #0x18	; 24
	.db #0x04	; 4
	.db #0x78	; 120	'x'
	.db #0x7c	; 124
	.db #0x08	; 8
	.db #0x04	; 4
	.db #0x04	; 4
	.db #0x78	; 120	'x'
	.db #0x38	; 56	'8'
	.db #0x44	; 68	'D'
	.db #0x44	; 68	'D'
	.db #0x44	; 68	'D'
	.db #0x38	; 56	'8'
	.db #0x7c	; 124
	.db #0x14	; 20
	.db #0x14	; 20
	.db #0x14	; 20
	.db #0x08	; 8
	.db #0x08	; 8
	.db #0x14	; 20
	.db #0x14	; 20
	.db #0x14	; 20
	.db #0x7c	; 124
	.db #0x7c	; 124
	.db #0x08	; 8
	.db #0x04	; 4
	.db #0x04	; 4
	.db #0x08	; 8
	.db #0x48	; 72	'H'
	.db #0x54	; 84	'T'
	.db #0x54	; 84	'T'
	.db #0x54	; 84	'T'
	.db #0x20	; 32
	.db #0x04	; 4
	.db #0x3f	; 63
	.db #0x44	; 68	'D'
	.db #0x40	; 64
	.db #0x20	; 32
	.db #0x3c	; 60
	.db #0x40	; 64
	.db #0x40	; 64
	.db #0x20	; 32
	.db #0x7c	; 124
	.db #0x1c	; 28
	.db #0x20	; 32
	.db #0x40	; 64
	.db #0x20	; 32
	.db #0x1c	; 28
	.db #0x3c	; 60
	.db #0x40	; 64
	.db #0x30	; 48	'0'
	.db #0x40	; 64
	.db #0x3c	; 60
	.db #0x44	; 68	'D'
	.db #0x28	; 40
	.db #0x10	; 16
	.db #0x28	; 40
	.db #0x44	; 68	'D'
	.db #0x0c	; 12
	.db #0x50	; 80	'P'
	.db #0x50	; 80	'P'
	.db #0x50	; 80	'P'
	.db #0x3c	; 60
	.db #0x44	; 68	'D'
	.db #0x64	; 100	'd'
	.db #0x54	; 84	'T'
	.db #0x4c	; 76	'L'
	.db #0x44	; 68	'D'
	.db #0x00	; 0
	.db #0x08	; 8
	.db #0x36	; 54	'6'
	.db #0x41	; 65	'A'
	.db #0x00	; 0
	.db #0x00	; 0
	.db #0x00	; 0
	.db #0x7f	; 127
	.db #0x00	; 0
	.db #0x00	; 0
	.db #0x00	; 0
	.db #0x41	; 65	'A'
	.db #0x36	; 54	'6'
	.db #0x08	; 8
	.db #0x00	; 0
	.db #0x10	; 16
	.db #0x08	; 8
	.db #0x08	; 8
	.db #0x10	; 16
	.db #0x08	; 8
	.db #0x00	; 0
	.db #0x00	; 0
	.db #0x00	; 0
	.db #0x00	; 0
	.db #0x00	; 0
	.area XINIT   (CODE)
	.area CABS    (ABS,CODE)
