                                      1 ;--------------------------------------------------------
                                      2 ; File Created by SDCC : free open source ANSI-C Compiler
                                      3 ; Version 4.0.0 #11528 (Linux)
                                      4 ;--------------------------------------------------------
                                      5 	.module advpwm_hal
                                      6 	.optsdcc -mmcs51 --model-large
                                      7 	
                                      8 ;--------------------------------------------------------
                                      9 ; Public variables in this module
                                     10 ;--------------------------------------------------------
                                     11 	.globl _pwmOnChannelInterrupt
                                     12 	.globl _pwmOnCounterInterrupt
                                     13 	.globl _gpioConfigure
                                     14 	.globl _S1SM0_FE
                                     15 	.globl _T1IE
                                     16 	.globl _T0IE
                                     17 	.globl _T1RUN
                                     18 	.globl _T0RUN
                                     19 	.globl _CY
                                     20 	.globl _AC
                                     21 	.globl _F0
                                     22 	.globl _RS1
                                     23 	.globl _RS0
                                     24 	.globl _OV
                                     25 	.globl _F1
                                     26 	.globl _P
                                     27 	.globl _EA
                                     28 	.globl _INT1IE
                                     29 	.globl _INT0IE
                                     30 	.globl _INT1TR
                                     31 	.globl _INT0TR
                                     32 	.globl _P5_5
                                     33 	.globl _P5_4
                                     34 	.globl _P5_3
                                     35 	.globl _P5_2
                                     36 	.globl _P5_1
                                     37 	.globl _P5_0
                                     38 	.globl _P3_7
                                     39 	.globl _P3_6
                                     40 	.globl _P3_5
                                     41 	.globl _P3_4
                                     42 	.globl _P3_3
                                     43 	.globl _P3_2
                                     44 	.globl _P3_1
                                     45 	.globl _P3_0
                                     46 	.globl _P2_7
                                     47 	.globl _P2_6
                                     48 	.globl _P2_5
                                     49 	.globl _P2_4
                                     50 	.globl _P2_3
                                     51 	.globl _P2_2
                                     52 	.globl _P2_1
                                     53 	.globl _P2_0
                                     54 	.globl _P1_7
                                     55 	.globl _P1_6
                                     56 	.globl _P1_5
                                     57 	.globl _P1_4
                                     58 	.globl _P1_3
                                     59 	.globl _P1_2
                                     60 	.globl _P1_1
                                     61 	.globl _P1_0
                                     62 	.globl _USBADR
                                     63 	.globl _USBCON
                                     64 	.globl _USBDAT
                                     65 	.globl _USBCLK
                                     66 	.globl _S4BUF
                                     67 	.globl _S4CON
                                     68 	.globl _S3BUF
                                     69 	.globl _S3CON
                                     70 	.globl _S2BUF
                                     71 	.globl _S2CON
                                     72 	.globl _S1BUF
                                     73 	.globl _S1CON
                                     74 	.globl _SADEN
                                     75 	.globl _SADDR
                                     76 	.globl _AUXINTIF
                                     77 	.globl _T3
                                     78 	.globl _T3L
                                     79 	.globl _T3H
                                     80 	.globl _T4
                                     81 	.globl _T4L
                                     82 	.globl _T4H
                                     83 	.globl _T4T3M
                                     84 	.globl _WDT_CONTR
                                     85 	.globl _AUXR
                                     86 	.globl _T2
                                     87 	.globl _T2H
                                     88 	.globl _T2L
                                     89 	.globl _T1
                                     90 	.globl _T1H
                                     91 	.globl _T1L
                                     92 	.globl _T0
                                     93 	.globl _T0H
                                     94 	.globl _T0L
                                     95 	.globl _TMOD
                                     96 	.globl _TCON
                                     97 	.globl _IRTRIM
                                     98 	.globl _LIRTRIM
                                     99 	.globl _IRCBAND
                                    100 	.globl _SPDAT
                                    101 	.globl _SPCTL
                                    102 	.globl _SPSTAT
                                    103 	.globl _WKTC
                                    104 	.globl _WKTCH
                                    105 	.globl _WKTCL
                                    106 	.globl _BUS_SPEED
                                    107 	.globl _P_SW2
                                    108 	.globl _P_SW1
                                    109 	.globl _RSTCFG
                                    110 	.globl _PCON
                                    111 	.globl _B
                                    112 	.globl _ACC
                                    113 	.globl _PSW
                                    114 	.globl _SP
                                    115 	.globl _IP3H
                                    116 	.globl _IP3L
                                    117 	.globl _IP2H
                                    118 	.globl _IP2L
                                    119 	.globl _IE2
                                    120 	.globl _IP1H
                                    121 	.globl _IP1L
                                    122 	.globl _IE1
                                    123 	.globl _INT_CLKO
                                    124 	.globl _IAP_TPS
                                    125 	.globl _IAP_CONTR
                                    126 	.globl _IAP_TRIG
                                    127 	.globl _IAP_CMD
                                    128 	.globl _IAP_ADDR
                                    129 	.globl _IAP_ADDRL
                                    130 	.globl _IAP_ADDRH
                                    131 	.globl _IAP_DATA
                                    132 	.globl _P5M0
                                    133 	.globl _P5M1
                                    134 	.globl _P5
                                    135 	.globl _P3M0
                                    136 	.globl _P3M1
                                    137 	.globl _P3
                                    138 	.globl _P2M0
                                    139 	.globl _P2M1
                                    140 	.globl _P2
                                    141 	.globl _P1M0
                                    142 	.globl _P1M1
                                    143 	.globl _P1
                                    144 	.globl _TA
                                    145 	.globl _DPH1
                                    146 	.globl _DPL1
                                    147 	.globl _DPS
                                    148 	.globl _DP
                                    149 	.globl _DPH
                                    150 	.globl _DPL
                                    151 	.globl _CMPCR2
                                    152 	.globl _CMPCR1
                                    153 	.globl _DMA_ADC_AMT
                                    154 	.globl _ADCCFG
                                    155 	.globl _ADC_RES
                                    156 	.globl _ADC_RESL
                                    157 	.globl _ADC_RESH
                                    158 	.globl _ADC_CONTR
                                    159 	.globl _pwmInitialiseCapture_PARM_6
                                    160 	.globl _pwmInitialiseCapture_PARM_5
                                    161 	.globl _pwmInitialiseCapture_PARM_4
                                    162 	.globl _pwmInitialiseCapture_PARM_3
                                    163 	.globl _pwmInitialiseCapture_PARM_2
                                    164 	.globl _pwmInitialiseQuadratureEncoder_PARM_4
                                    165 	.globl _pwmInitialiseQuadratureEncoder_PARM_3
                                    166 	.globl _pwmInitialiseQuadratureEncoder_PARM_2
                                    167 	.globl _pwmSetDutyCycle_PARM_2
                                    168 	.globl _pwmInitialisePWM_PARM_5
                                    169 	.globl _pwmInitialisePWM_PARM_4
                                    170 	.globl _pwmInitialisePWM_PARM_3
                                    171 	.globl _pwmInitialisePWM_PARM_2
                                    172 	.globl _pwmConfigureCounter_PARM_11
                                    173 	.globl _pwmConfigureCounter_PARM_10
                                    174 	.globl _pwmConfigureCounter_PARM_9
                                    175 	.globl _pwmConfigureCounter_PARM_8
                                    176 	.globl _pwmConfigureCounter_PARM_7
                                    177 	.globl _pwmConfigureCounter_PARM_6
                                    178 	.globl _pwmConfigureCounter_PARM_5
                                    179 	.globl _pwmConfigureCounter_PARM_4
                                    180 	.globl _pwmConfigureCounter_PARM_3
                                    181 	.globl _pwmConfigureCounter_PARM_2
                                    182 	.globl _pwmConfigureOutput_PARM_7
                                    183 	.globl _pwmConfigureOutput_PARM_6
                                    184 	.globl _pwmConfigureOutput_PARM_5
                                    185 	.globl _pwmConfigureOutput_PARM_4
                                    186 	.globl _pwmConfigureOutput_PARM_3
                                    187 	.globl _pwmConfigureOutput_PARM_2
                                    188 	.globl _DMA_UR4R_TXAL
                                    189 	.globl _DMA_UR4R_TXAH
                                    190 	.globl _DMA_UR4R_DONE
                                    191 	.globl _DMA_UR4R_AMT
                                    192 	.globl _DMA_UR4R_STA
                                    193 	.globl _DMA_UR4R_CR
                                    194 	.globl _DMA_UR4R_CFG
                                    195 	.globl _DMA_UR4T_TXAL
                                    196 	.globl _DMA_UR4T_TXAH
                                    197 	.globl _DMA_UR4T_DONE
                                    198 	.globl _DMA_UR4T_AMT
                                    199 	.globl _DMA_UR4T_STA
                                    200 	.globl _DMA_UR4T_CR
                                    201 	.globl _DMA_UR4T_CFG
                                    202 	.globl _DMA_UR3R_TXAL
                                    203 	.globl _DMA_UR3R_TXAH
                                    204 	.globl _DMA_UR3R_DONE
                                    205 	.globl _DMA_UR3R_AMT
                                    206 	.globl _DMA_UR3R_STA
                                    207 	.globl _DMA_UR3R_CR
                                    208 	.globl _DMA_UR3R_CFG
                                    209 	.globl _DMA_UR3T_TXAL
                                    210 	.globl _DMA_UR3T_TXAH
                                    211 	.globl _DMA_UR3T_DONE
                                    212 	.globl _DMA_UR3T_AMT
                                    213 	.globl _DMA_UR3T_STA
                                    214 	.globl _DMA_UR3T_CR
                                    215 	.globl _DMA_UR3T_CFG
                                    216 	.globl _DMA_UR2R_TXAL
                                    217 	.globl _DMA_UR2R_TXAH
                                    218 	.globl _DMA_UR2R_DONE
                                    219 	.globl _DMA_UR2R_AMT
                                    220 	.globl _DMA_UR2R_STA
                                    221 	.globl _DMA_UR2R_CR
                                    222 	.globl _DMA_UR2R_CFG
                                    223 	.globl _DMA_UR2T_TXAL
                                    224 	.globl _DMA_UR2T_TXAH
                                    225 	.globl _DMA_UR2T_DONE
                                    226 	.globl _DMA_UR2T_AMT
                                    227 	.globl _DMA_UR2T_STA
                                    228 	.globl _DMA_UR2T_CR
                                    229 	.globl _DMA_UR2T_CFG
                                    230 	.globl _DMA_UR1R_TXAL
                                    231 	.globl _DMA_UR1R_TXAH
                                    232 	.globl _DMA_UR1R_DONE
                                    233 	.globl _DMA_UR1R_AMT
                                    234 	.globl _DMA_UR1R_STA
                                    235 	.globl _DMA_UR1R_CR
                                    236 	.globl _DMA_UR1R_CFG
                                    237 	.globl _DMA_UR1T_TXAL
                                    238 	.globl _DMA_UR1T_TXAH
                                    239 	.globl _DMA_UR1T_DONE
                                    240 	.globl _DMA_URTX_AMT
                                    241 	.globl _DMA_UR1T_STA
                                    242 	.globl _DMA_UR1T_CR
                                    243 	.globl _DMA_UR1T_CFG
                                    244 	.globl _TM4PS
                                    245 	.globl _TM3PS
                                    246 	.globl _TM2PS
                                    247 	.globl _IRC48MCR
                                    248 	.globl _IRCDB
                                    249 	.globl _MCLKOCR
                                    250 	.globl _CKSEL
                                    251 	.globl _IRC32KCR
                                    252 	.globl _XOSCCR
                                    253 	.globl _HIRCCR
                                    254 	.globl _CLKDIV
                                    255 	.globl _DMA_SPI_CFG2
                                    256 	.globl _DMA_SPI_RXAL
                                    257 	.globl _DMA_SPI_RXAH
                                    258 	.globl _DMA_SPI_TXAL
                                    259 	.globl _DMA_SPI_TXAH
                                    260 	.globl _DMA_SPI_DONE
                                    261 	.globl _DMA_SPI_AMT
                                    262 	.globl _DMA_SPI_STA
                                    263 	.globl _DMA_SPI_CR
                                    264 	.globl _DMA_SPI_CFG
                                    265 	.globl _SSEC
                                    266 	.globl _SEC
                                    267 	.globl _MIN
                                    268 	.globl _HOUR
                                    269 	.globl _DAY
                                    270 	.globl _MONTH
                                    271 	.globl _YEAR
                                    272 	.globl _INISSEC
                                    273 	.globl _INISEC
                                    274 	.globl _INIMIN
                                    275 	.globl _INIHOUR
                                    276 	.globl _INIDAY
                                    277 	.globl _INIMONTH
                                    278 	.globl _INIYEAR
                                    279 	.globl _ALASSEC
                                    280 	.globl _ALASEC
                                    281 	.globl _ALAMIN
                                    282 	.globl _ALAHOUR
                                    283 	.globl _RTCIF
                                    284 	.globl _RTCIEN
                                    285 	.globl _RTCCFG
                                    286 	.globl _RTCCR
                                    287 	.globl _PWMB_OISR
                                    288 	.globl _PWMB_DTR
                                    289 	.globl _PWMB_BKR
                                    290 	.globl _PWMB_CCR4L
                                    291 	.globl _PWMB_CCR4H
                                    292 	.globl _PWMB_CCR3L
                                    293 	.globl _PWMB_CCR3H
                                    294 	.globl _PWMB_CCR2L
                                    295 	.globl _PWMB_CCR2H
                                    296 	.globl _PWMB_CCR1L
                                    297 	.globl _PWMB_CCR1H
                                    298 	.globl _PWMB_RCR
                                    299 	.globl _PWMB_ARRL
                                    300 	.globl _PWMB_ARRH
                                    301 	.globl _PWMB_PSCRL
                                    302 	.globl _PWMB_PSCRH
                                    303 	.globl _PWMB_CNTRL
                                    304 	.globl _PWMB_CNTRH
                                    305 	.globl _PWMB_CCER2
                                    306 	.globl _PWMB_CCER1
                                    307 	.globl _PWMB_CCMR4
                                    308 	.globl _PWMB_CCMR3
                                    309 	.globl _PWMB_CCMR2
                                    310 	.globl _PWMB_CCMR1
                                    311 	.globl _PWMB_EGR
                                    312 	.globl _PWMB_SR2
                                    313 	.globl _PWMB_SR1
                                    314 	.globl _PWMB_IER
                                    315 	.globl _PWMB_ETR
                                    316 	.globl _PWMB_SMCR
                                    317 	.globl _PWMB_CR2
                                    318 	.globl _PWMB_CR1
                                    319 	.globl _PWMA_OISR
                                    320 	.globl _PWMA_DTR
                                    321 	.globl _PWMA_BKR
                                    322 	.globl _PWMA_CCR4L
                                    323 	.globl _PWMA_CCR4H
                                    324 	.globl _PWMA_CCR3L
                                    325 	.globl _PWMA_CCR3H
                                    326 	.globl _PWMA_CCR2L
                                    327 	.globl _PWMA_CCR2H
                                    328 	.globl _PWMA_CCR1L
                                    329 	.globl _PWMA_CCR1H
                                    330 	.globl _PWMA_RCR
                                    331 	.globl _PWMA_ARRL
                                    332 	.globl _PWMA_ARRH
                                    333 	.globl _PWMA_PSCRL
                                    334 	.globl _PWMA_PSCRH
                                    335 	.globl _PWMA_CNTRL
                                    336 	.globl _PWMA_CNTRH
                                    337 	.globl _PWMA_CCER2
                                    338 	.globl _PWMA_CCER1
                                    339 	.globl _PWMA_CCMR4
                                    340 	.globl _PWMA_CCMR3
                                    341 	.globl _PWMA_CCMR2
                                    342 	.globl _PWMA_CCMR1
                                    343 	.globl _PWMA_EGR
                                    344 	.globl _PWMA_SR2
                                    345 	.globl _PWMA_SR1
                                    346 	.globl _PWMA_IER
                                    347 	.globl _PWMA_ETR
                                    348 	.globl _PWMA_SMCR
                                    349 	.globl _PWMA_CR2
                                    350 	.globl _PWMA_CR1
                                    351 	.globl _PWMB_IOAUX
                                    352 	.globl _PWMB_PS
                                    353 	.globl _PWMB_ENO
                                    354 	.globl _PWMB_ETRPS
                                    355 	.globl _PWMA_IOAUX
                                    356 	.globl _PWMA_PS
                                    357 	.globl _PWMA_ENO
                                    358 	.globl _PWMA_ETRPS
                                    359 	.globl _RSTFLAG
                                    360 	.globl _SPFUNC
                                    361 	.globl _OPCON
                                    362 	.globl _ARCON
                                    363 	.globl _MD4
                                    364 	.globl _MD5
                                    365 	.globl _MD0
                                    366 	.globl _MD1
                                    367 	.globl _MD2
                                    368 	.globl _MD3
                                    369 	.globl _DMA_LCM_RXAL
                                    370 	.globl _DMA_LCM_RXAH
                                    371 	.globl _DMA_LCM_TXAL
                                    372 	.globl _DMA_LCM_TXAH
                                    373 	.globl _DMA_LCM_DONE
                                    374 	.globl _DMA_LCM_AMT
                                    375 	.globl _DMA_LCM_STA
                                    376 	.globl _DMA_LCM_CR
                                    377 	.globl _DMA_LCM_CFG
                                    378 	.globl _LCMIDDAT
                                    379 	.globl _LCMIDDATH
                                    380 	.globl _LCMIDDATL
                                    381 	.globl _LCMSTA
                                    382 	.globl _LCMCR
                                    383 	.globl _LCMCFG2
                                    384 	.globl _LCMCFG
                                    385 	.globl _I2CMSAUX
                                    386 	.globl _I2CRXD
                                    387 	.globl _I2CTXD
                                    388 	.globl _I2CSLADR
                                    389 	.globl _I2CSLST
                                    390 	.globl _I2CSLCR
                                    391 	.globl _I2CMSST
                                    392 	.globl _I2CMSCR
                                    393 	.globl _I2CCFG
                                    394 	.globl _PINIPH
                                    395 	.globl _PINIPL
                                    396 	.globl _P5IE
                                    397 	.globl _P5DR
                                    398 	.globl _P5SR
                                    399 	.globl _P5NCS
                                    400 	.globl _P5PU
                                    401 	.globl _P5WKUE
                                    402 	.globl _P5IM1
                                    403 	.globl _P5IM0
                                    404 	.globl _P5INTF
                                    405 	.globl _P5INTE
                                    406 	.globl _P3IE
                                    407 	.globl _P3DR
                                    408 	.globl _P3SR
                                    409 	.globl _P3NCS
                                    410 	.globl _P3PU
                                    411 	.globl _P3WKUE
                                    412 	.globl _P3IM1
                                    413 	.globl _P3IM0
                                    414 	.globl _P3INTF
                                    415 	.globl _P3INTE
                                    416 	.globl _P2IE
                                    417 	.globl _P2DR
                                    418 	.globl _P2SR
                                    419 	.globl _P2NCS
                                    420 	.globl _P2PU
                                    421 	.globl _P2WKUE
                                    422 	.globl _P2IM1
                                    423 	.globl _P2IM0
                                    424 	.globl _P2INTF
                                    425 	.globl _P2INTE
                                    426 	.globl _P1IE
                                    427 	.globl _P1DR
                                    428 	.globl _P1SR
                                    429 	.globl _P1NCS
                                    430 	.globl _P1PU
                                    431 	.globl _P1WKUE
                                    432 	.globl _P1IM1
                                    433 	.globl _P1IM0
                                    434 	.globl _P1INTF
                                    435 	.globl _P1INTE
                                    436 	.globl _DMA_M2M_RXAL
                                    437 	.globl _DMA_M2M_RXAH
                                    438 	.globl _DMA_M2M_TXAL
                                    439 	.globl _DMA_M2M_TXAH
                                    440 	.globl _DMA_M2M_DONE
                                    441 	.globl _DMA_M2M_AMT
                                    442 	.globl _DMA_M2M_STA
                                    443 	.globl _DMA_M2M_CR
                                    444 	.globl _DMA_M2M_CFG
                                    445 	.globl _CMPEXCFG
                                    446 	.globl _DMA_ADC_CHSW1
                                    447 	.globl _DMA_ADC_CHSW0
                                    448 	.globl _DMA_ADC_CFG2
                                    449 	.globl _DMA_ADC_RXAL
                                    450 	.globl _DMA_ADC_RXAH
                                    451 	.globl _DMA_ADC_STA
                                    452 	.globl _DMA_ADC_CR
                                    453 	.globl _DMA_ADC_CFG
                                    454 	.globl _ADCEXCFG
                                    455 	.globl _ADCTIM
                                    456 	.globl _pwmConfigureOutput
                                    457 	.globl _pwmConfigureCounter
                                    458 	.globl _pwmEnableMainOutput
                                    459 	.globl _pwmEnableCounter
                                    460 	.globl _pwmInitialisePWM
                                    461 	.globl _pwmSetDutyCycle
                                    462 	.globl _pwmInitialiseQuadratureEncoder
                                    463 	.globl _pwmInitialiseCapture
                                    464 	.globl _pwmA_isr
                                    465 	.globl _pwmB_isr
                                    466 ;--------------------------------------------------------
                                    467 ; special function registers
                                    468 ;--------------------------------------------------------
                                    469 	.area RSEG    (ABS,DATA)
      000000                        470 	.org 0x0000
                           0000BC   471 _ADC_CONTR	=	0x00bc
                           0000BD   472 _ADC_RESH	=	0x00bd
                           0000BE   473 _ADC_RESL	=	0x00be
                           00BDBE   474 _ADC_RES	=	0xbdbe
                           0000DE   475 _ADCCFG	=	0x00de
                           0000FA   476 _DMA_ADC_AMT	=	0x00fa
                           0000E6   477 _CMPCR1	=	0x00e6
                           0000E7   478 _CMPCR2	=	0x00e7
                           000082   479 _DPL	=	0x0082
                           000083   480 _DPH	=	0x0083
                           008382   481 _DP	=	0x8382
                           0000E3   482 _DPS	=	0x00e3
                           0000E4   483 _DPL1	=	0x00e4
                           0000E5   484 _DPH1	=	0x00e5
                           0000AE   485 _TA	=	0x00ae
                           000090   486 _P1	=	0x0090
                           000091   487 _P1M1	=	0x0091
                           000092   488 _P1M0	=	0x0092
                           0000A0   489 _P2	=	0x00a0
                           000095   490 _P2M1	=	0x0095
                           000096   491 _P2M0	=	0x0096
                           0000B0   492 _P3	=	0x00b0
                           0000B1   493 _P3M1	=	0x00b1
                           0000B2   494 _P3M0	=	0x00b2
                           0000C8   495 _P5	=	0x00c8
                           0000C9   496 _P5M1	=	0x00c9
                           0000CA   497 _P5M0	=	0x00ca
                           0000C2   498 _IAP_DATA	=	0x00c2
                           0000C3   499 _IAP_ADDRH	=	0x00c3
                           0000C4   500 _IAP_ADDRL	=	0x00c4
                           00C3C4   501 _IAP_ADDR	=	0xc3c4
                           0000C5   502 _IAP_CMD	=	0x00c5
                           0000C6   503 _IAP_TRIG	=	0x00c6
                           0000C7   504 _IAP_CONTR	=	0x00c7
                           0000F5   505 _IAP_TPS	=	0x00f5
                           00008F   506 _INT_CLKO	=	0x008f
                           0000A8   507 _IE1	=	0x00a8
                           0000B8   508 _IP1L	=	0x00b8
                           0000B7   509 _IP1H	=	0x00b7
                           0000AF   510 _IE2	=	0x00af
                           0000B5   511 _IP2L	=	0x00b5
                           0000B6   512 _IP2H	=	0x00b6
                           0000DF   513 _IP3L	=	0x00df
                           0000EE   514 _IP3H	=	0x00ee
                           000081   515 _SP	=	0x0081
                           0000D0   516 _PSW	=	0x00d0
                           0000E0   517 _ACC	=	0x00e0
                           0000F0   518 _B	=	0x00f0
                           000087   519 _PCON	=	0x0087
                           0000FF   520 _RSTCFG	=	0x00ff
                           0000A2   521 _P_SW1	=	0x00a2
                           0000BA   522 _P_SW2	=	0x00ba
                           0000A1   523 _BUS_SPEED	=	0x00a1
                           0000AA   524 _WKTCL	=	0x00aa
                           0000AB   525 _WKTCH	=	0x00ab
                           00ABAA   526 _WKTC	=	0xabaa
                           0000CD   527 _SPSTAT	=	0x00cd
                           0000CE   528 _SPCTL	=	0x00ce
                           0000CF   529 _SPDAT	=	0x00cf
                           00009D   530 _IRCBAND	=	0x009d
                           00009E   531 _LIRTRIM	=	0x009e
                           00009F   532 _IRTRIM	=	0x009f
                           000088   533 _TCON	=	0x0088
                           000089   534 _TMOD	=	0x0089
                           00008A   535 _T0L	=	0x008a
                           00008C   536 _T0H	=	0x008c
                           008C8A   537 _T0	=	0x8c8a
                           00008B   538 _T1L	=	0x008b
                           00008D   539 _T1H	=	0x008d
                           008D8B   540 _T1	=	0x8d8b
                           0000D7   541 _T2L	=	0x00d7
                           0000D6   542 _T2H	=	0x00d6
                           00D6D7   543 _T2	=	0xd6d7
                           00008E   544 _AUXR	=	0x008e
                           0000C1   545 _WDT_CONTR	=	0x00c1
                           0000D1   546 _T4T3M	=	0x00d1
                           0000D2   547 _T4H	=	0x00d2
                           0000D3   548 _T4L	=	0x00d3
                           00D2D3   549 _T4	=	0xd2d3
                           0000D4   550 _T3H	=	0x00d4
                           0000D5   551 _T3L	=	0x00d5
                           00D4D5   552 _T3	=	0xd4d5
                           0000EF   553 _AUXINTIF	=	0x00ef
                           0000A9   554 _SADDR	=	0x00a9
                           0000B9   555 _SADEN	=	0x00b9
                           000098   556 _S1CON	=	0x0098
                           000099   557 _S1BUF	=	0x0099
                           00009A   558 _S2CON	=	0x009a
                           00009B   559 _S2BUF	=	0x009b
                           0000AC   560 _S3CON	=	0x00ac
                           0000AD   561 _S3BUF	=	0x00ad
                           000084   562 _S4CON	=	0x0084
                           000085   563 _S4BUF	=	0x0085
                           0000DC   564 _USBCLK	=	0x00dc
                           0000EC   565 _USBDAT	=	0x00ec
                           0000F4   566 _USBCON	=	0x00f4
                           0000FC   567 _USBADR	=	0x00fc
                                    568 ;--------------------------------------------------------
                                    569 ; special function bits
                                    570 ;--------------------------------------------------------
                                    571 	.area RSEG    (ABS,DATA)
      000000                        572 	.org 0x0000
                           000090   573 _P1_0	=	0x0090
                           000091   574 _P1_1	=	0x0091
                           000092   575 _P1_2	=	0x0092
                           000093   576 _P1_3	=	0x0093
                           000094   577 _P1_4	=	0x0094
                           000095   578 _P1_5	=	0x0095
                           000096   579 _P1_6	=	0x0096
                           000097   580 _P1_7	=	0x0097
                           0000A0   581 _P2_0	=	0x00a0
                           0000A1   582 _P2_1	=	0x00a1
                           0000A2   583 _P2_2	=	0x00a2
                           0000A3   584 _P2_3	=	0x00a3
                           0000A4   585 _P2_4	=	0x00a4
                           0000A5   586 _P2_5	=	0x00a5
                           0000A6   587 _P2_6	=	0x00a6
                           0000A7   588 _P2_7	=	0x00a7
                           0000B0   589 _P3_0	=	0x00b0
                           0000B1   590 _P3_1	=	0x00b1
                           0000B2   591 _P3_2	=	0x00b2
                           0000B3   592 _P3_3	=	0x00b3
                           0000B4   593 _P3_4	=	0x00b4
                           0000B5   594 _P3_5	=	0x00b5
                           0000B6   595 _P3_6	=	0x00b6
                           0000B7   596 _P3_7	=	0x00b7
                           0000C8   597 _P5_0	=	0x00c8
                           0000C9   598 _P5_1	=	0x00c9
                           0000CA   599 _P5_2	=	0x00ca
                           0000CB   600 _P5_3	=	0x00cb
                           0000CC   601 _P5_4	=	0x00cc
                           0000CD   602 _P5_5	=	0x00cd
                           000088   603 _INT0TR	=	0x0088
                           00008A   604 _INT1TR	=	0x008a
                           0000A8   605 _INT0IE	=	0x00a8
                           0000AA   606 _INT1IE	=	0x00aa
                           0000AF   607 _EA	=	0x00af
                           0000D0   608 _P	=	0x00d0
                           0000D1   609 _F1	=	0x00d1
                           0000D2   610 _OV	=	0x00d2
                           0000D3   611 _RS0	=	0x00d3
                           0000D4   612 _RS1	=	0x00d4
                           0000D5   613 _F0	=	0x00d5
                           0000D6   614 _AC	=	0x00d6
                           0000D7   615 _CY	=	0x00d7
                           00008C   616 _T0RUN	=	0x008c
                           00008E   617 _T1RUN	=	0x008e
                           0000A9   618 _T0IE	=	0x00a9
                           0000AB   619 _T1IE	=	0x00ab
                           00009F   620 _S1SM0_FE	=	0x009f
                                    621 ;--------------------------------------------------------
                                    622 ; overlayable register banks
                                    623 ;--------------------------------------------------------
                                    624 	.area REG_BANK_0	(REL,OVR,DATA)
      000000                        625 	.ds 8
                                    626 ;--------------------------------------------------------
                                    627 ; overlayable bit register bank
                                    628 ;--------------------------------------------------------
                                    629 	.area BIT_BANK	(REL,OVR,DATA)
      000000                        630 bits:
      000000                        631 	.ds 1
                           008000   632 	b0 = bits[0]
                           008100   633 	b1 = bits[1]
                           008200   634 	b2 = bits[2]
                           008300   635 	b3 = bits[3]
                           008400   636 	b4 = bits[4]
                           008500   637 	b5 = bits[5]
                           008600   638 	b6 = bits[6]
                           008700   639 	b7 = bits[7]
                                    640 ;--------------------------------------------------------
                                    641 ; internal ram data
                                    642 ;--------------------------------------------------------
                                    643 	.area DSEG    (DATA)
      000000                        644 _pwmA_isr_sloc0_1_0:
      000000                        645 	.ds 4
      000004                        646 _pwmB_isr_sloc0_1_0:
      000004                        647 	.ds 4
                                    648 ;--------------------------------------------------------
                                    649 ; overlayable items in internal ram 
                                    650 ;--------------------------------------------------------
                                    651 ;--------------------------------------------------------
                                    652 ; indirectly addressable internal ram data
                                    653 ;--------------------------------------------------------
                                    654 	.area ISEG    (DATA)
                                    655 ;--------------------------------------------------------
                                    656 ; absolute internal ram data
                                    657 ;--------------------------------------------------------
                                    658 	.area IABS    (ABS,DATA)
                                    659 	.area IABS    (ABS,DATA)
                                    660 ;--------------------------------------------------------
                                    661 ; bit data
                                    662 ;--------------------------------------------------------
                                    663 	.area BSEG    (BIT)
                                    664 ;--------------------------------------------------------
                                    665 ; paged external ram data
                                    666 ;--------------------------------------------------------
                                    667 	.area PSEG    (PAG,XDATA)
                                    668 ;--------------------------------------------------------
                                    669 ; external ram data
                                    670 ;--------------------------------------------------------
                                    671 	.area XSEG    (XDATA)
                           00FEA8   672 _ADCTIM	=	0xfea8
                           00FEAD   673 _ADCEXCFG	=	0xfead
                           00FA10   674 _DMA_ADC_CFG	=	0xfa10
                           00FA11   675 _DMA_ADC_CR	=	0xfa11
                           00FA12   676 _DMA_ADC_STA	=	0xfa12
                           00FA17   677 _DMA_ADC_RXAH	=	0xfa17
                           00FA18   678 _DMA_ADC_RXAL	=	0xfa18
                           00FA19   679 _DMA_ADC_CFG2	=	0xfa19
                           00FA1A   680 _DMA_ADC_CHSW0	=	0xfa1a
                           00FA1B   681 _DMA_ADC_CHSW1	=	0xfa1b
                           00FEAE   682 _CMPEXCFG	=	0xfeae
                           00FA00   683 _DMA_M2M_CFG	=	0xfa00
                           00FA01   684 _DMA_M2M_CR	=	0xfa01
                           00FA02   685 _DMA_M2M_STA	=	0xfa02
                           00FA03   686 _DMA_M2M_AMT	=	0xfa03
                           00FA04   687 _DMA_M2M_DONE	=	0xfa04
                           00FA05   688 _DMA_M2M_TXAH	=	0xfa05
                           00FA06   689 _DMA_M2M_TXAL	=	0xfa06
                           00FA07   690 _DMA_M2M_RXAH	=	0xfa07
                           00FA08   691 _DMA_M2M_RXAL	=	0xfa08
                           00FD01   692 _P1INTE	=	0xfd01
                           00FD11   693 _P1INTF	=	0xfd11
                           00FD21   694 _P1IM0	=	0xfd21
                           00FD31   695 _P1IM1	=	0xfd31
                           00FD41   696 _P1WKUE	=	0xfd41
                           00FE11   697 _P1PU	=	0xfe11
                           00FE19   698 _P1NCS	=	0xfe19
                           00FE21   699 _P1SR	=	0xfe21
                           00FE29   700 _P1DR	=	0xfe29
                           00FE31   701 _P1IE	=	0xfe31
                           00FD02   702 _P2INTE	=	0xfd02
                           00FD12   703 _P2INTF	=	0xfd12
                           00FD22   704 _P2IM0	=	0xfd22
                           00FD32   705 _P2IM1	=	0xfd32
                           00FD42   706 _P2WKUE	=	0xfd42
                           00FE12   707 _P2PU	=	0xfe12
                           00FE1A   708 _P2NCS	=	0xfe1a
                           00FE22   709 _P2SR	=	0xfe22
                           00FE2A   710 _P2DR	=	0xfe2a
                           00FE32   711 _P2IE	=	0xfe32
                           00FD03   712 _P3INTE	=	0xfd03
                           00FD13   713 _P3INTF	=	0xfd13
                           00FD23   714 _P3IM0	=	0xfd23
                           00FD33   715 _P3IM1	=	0xfd33
                           00FD43   716 _P3WKUE	=	0xfd43
                           00FE13   717 _P3PU	=	0xfe13
                           00FE1B   718 _P3NCS	=	0xfe1b
                           00FE23   719 _P3SR	=	0xfe23
                           00FE2B   720 _P3DR	=	0xfe2b
                           00FE33   721 _P3IE	=	0xfe33
                           00FD05   722 _P5INTE	=	0xfd05
                           00FD15   723 _P5INTF	=	0xfd15
                           00FD25   724 _P5IM0	=	0xfd25
                           00FD35   725 _P5IM1	=	0xfd35
                           00FD45   726 _P5WKUE	=	0xfd45
                           00FE15   727 _P5PU	=	0xfe15
                           00FE1D   728 _P5NCS	=	0xfe1d
                           00FE25   729 _P5SR	=	0xfe25
                           00FE2D   730 _P5DR	=	0xfe2d
                           00FE35   731 _P5IE	=	0xfe35
                           00FD60   732 _PINIPL	=	0xfd60
                           00FD61   733 _PINIPH	=	0xfd61
                           00FE80   734 _I2CCFG	=	0xfe80
                           00FE81   735 _I2CMSCR	=	0xfe81
                           00FE82   736 _I2CMSST	=	0xfe82
                           00FE83   737 _I2CSLCR	=	0xfe83
                           00FE84   738 _I2CSLST	=	0xfe84
                           00FE85   739 _I2CSLADR	=	0xfe85
                           00FE86   740 _I2CTXD	=	0xfe86
                           00FE87   741 _I2CRXD	=	0xfe87
                           00FE88   742 _I2CMSAUX	=	0xfe88
                           00FE50   743 _LCMCFG	=	0xfe50
                           00FE51   744 _LCMCFG2	=	0xfe51
                           00FE52   745 _LCMCR	=	0xfe52
                           00FE53   746 _LCMSTA	=	0xfe53
                           00FE54   747 _LCMIDDATL	=	0xfe54
                           00FE55   748 _LCMIDDATH	=	0xfe55
                           00FE54   749 _LCMIDDAT	=	0xfe54
                           00FA70   750 _DMA_LCM_CFG	=	0xfa70
                           00FA71   751 _DMA_LCM_CR	=	0xfa71
                           00FA72   752 _DMA_LCM_STA	=	0xfa72
                           00FA73   753 _DMA_LCM_AMT	=	0xfa73
                           00FA74   754 _DMA_LCM_DONE	=	0xfa74
                           00FA75   755 _DMA_LCM_TXAH	=	0xfa75
                           00FA76   756 _DMA_LCM_TXAL	=	0xfa76
                           00FA77   757 _DMA_LCM_RXAH	=	0xfa77
                           00FA78   758 _DMA_LCM_RXAL	=	0xfa78
                           00FCF0   759 _MD3	=	0xfcf0
                           00FCF1   760 _MD2	=	0xfcf1
                           00FCF2   761 _MD1	=	0xfcf2
                           00FCF3   762 _MD0	=	0xfcf3
                           00FCF4   763 _MD5	=	0xfcf4
                           00FCF5   764 _MD4	=	0xfcf5
                           00FCF6   765 _ARCON	=	0xfcf6
                           00FCF7   766 _OPCON	=	0xfcf7
                           00FE08   767 _SPFUNC	=	0xfe08
                           00FE09   768 _RSTFLAG	=	0xfe09
                           00FEB0   769 _PWMA_ETRPS	=	0xfeb0
                           00FEB1   770 _PWMA_ENO	=	0xfeb1
                           00FEB2   771 _PWMA_PS	=	0xfeb2
                           00FEB3   772 _PWMA_IOAUX	=	0xfeb3
                           00FEB4   773 _PWMB_ETRPS	=	0xfeb4
                           00FEB5   774 _PWMB_ENO	=	0xfeb5
                           00FEB6   775 _PWMB_PS	=	0xfeb6
                           00FEB7   776 _PWMB_IOAUX	=	0xfeb7
                           00FEC0   777 _PWMA_CR1	=	0xfec0
                           00FEC1   778 _PWMA_CR2	=	0xfec1
                           00FEC2   779 _PWMA_SMCR	=	0xfec2
                           00FEC3   780 _PWMA_ETR	=	0xfec3
                           00FEC4   781 _PWMA_IER	=	0xfec4
                           00FEC5   782 _PWMA_SR1	=	0xfec5
                           00FEC6   783 _PWMA_SR2	=	0xfec6
                           00FEC7   784 _PWMA_EGR	=	0xfec7
                           00FEC8   785 _PWMA_CCMR1	=	0xfec8
                           00FEC9   786 _PWMA_CCMR2	=	0xfec9
                           00FECA   787 _PWMA_CCMR3	=	0xfeca
                           00FECB   788 _PWMA_CCMR4	=	0xfecb
                           00FECC   789 _PWMA_CCER1	=	0xfecc
                           00FECD   790 _PWMA_CCER2	=	0xfecd
                           00FECE   791 _PWMA_CNTRH	=	0xfece
                           00FECF   792 _PWMA_CNTRL	=	0xfecf
                           00FED0   793 _PWMA_PSCRH	=	0xfed0
                           00FED1   794 _PWMA_PSCRL	=	0xfed1
                           00FED2   795 _PWMA_ARRH	=	0xfed2
                           00FED3   796 _PWMA_ARRL	=	0xfed3
                           00FED4   797 _PWMA_RCR	=	0xfed4
                           00FED5   798 _PWMA_CCR1H	=	0xfed5
                           00FED6   799 _PWMA_CCR1L	=	0xfed6
                           00FED7   800 _PWMA_CCR2H	=	0xfed7
                           00FED8   801 _PWMA_CCR2L	=	0xfed8
                           00FED9   802 _PWMA_CCR3H	=	0xfed9
                           00FEDA   803 _PWMA_CCR3L	=	0xfeda
                           00FEDB   804 _PWMA_CCR4H	=	0xfedb
                           00FEDC   805 _PWMA_CCR4L	=	0xfedc
                           00FEDD   806 _PWMA_BKR	=	0xfedd
                           00FEDE   807 _PWMA_DTR	=	0xfede
                           00FEDF   808 _PWMA_OISR	=	0xfedf
                           00FEE0   809 _PWMB_CR1	=	0xfee0
                           00FEE1   810 _PWMB_CR2	=	0xfee1
                           00FEE2   811 _PWMB_SMCR	=	0xfee2
                           00FEE3   812 _PWMB_ETR	=	0xfee3
                           00FEE4   813 _PWMB_IER	=	0xfee4
                           00FEE5   814 _PWMB_SR1	=	0xfee5
                           00FEE6   815 _PWMB_SR2	=	0xfee6
                           00FEE7   816 _PWMB_EGR	=	0xfee7
                           00FEE8   817 _PWMB_CCMR1	=	0xfee8
                           00FEE9   818 _PWMB_CCMR2	=	0xfee9
                           00FEEA   819 _PWMB_CCMR3	=	0xfeea
                           00FEEB   820 _PWMB_CCMR4	=	0xfeeb
                           00FEEC   821 _PWMB_CCER1	=	0xfeec
                           00FEED   822 _PWMB_CCER2	=	0xfeed
                           00FEEE   823 _PWMB_CNTRH	=	0xfeee
                           00FEEF   824 _PWMB_CNTRL	=	0xfeef
                           00FEF0   825 _PWMB_PSCRH	=	0xfef0
                           00FEF1   826 _PWMB_PSCRL	=	0xfef1
                           00FEF2   827 _PWMB_ARRH	=	0xfef2
                           00FEF3   828 _PWMB_ARRL	=	0xfef3
                           00FEF4   829 _PWMB_RCR	=	0xfef4
                           00FEF5   830 _PWMB_CCR1H	=	0xfef5
                           00FEF6   831 _PWMB_CCR1L	=	0xfef6
                           00FEF7   832 _PWMB_CCR2H	=	0xfef7
                           00FEF8   833 _PWMB_CCR2L	=	0xfef8
                           00FEF9   834 _PWMB_CCR3H	=	0xfef9
                           00FEFA   835 _PWMB_CCR3L	=	0xfefa
                           00FEFB   836 _PWMB_CCR4H	=	0xfefb
                           00FEFC   837 _PWMB_CCR4L	=	0xfefc
                           00FEFD   838 _PWMB_BKR	=	0xfefd
                           00FEFE   839 _PWMB_DTR	=	0xfefe
                           00FEFF   840 _PWMB_OISR	=	0xfeff
                           00FE60   841 _RTCCR	=	0xfe60
                           00FE61   842 _RTCCFG	=	0xfe61
                           00FE62   843 _RTCIEN	=	0xfe62
                           00FE63   844 _RTCIF	=	0xfe63
                           00FE64   845 _ALAHOUR	=	0xfe64
                           00FE65   846 _ALAMIN	=	0xfe65
                           00FE66   847 _ALASEC	=	0xfe66
                           00FE67   848 _ALASSEC	=	0xfe67
                           00FE68   849 _INIYEAR	=	0xfe68
                           00FE69   850 _INIMONTH	=	0xfe69
                           00FE6A   851 _INIDAY	=	0xfe6a
                           00FE6B   852 _INIHOUR	=	0xfe6b
                           00FE6C   853 _INIMIN	=	0xfe6c
                           00FE6D   854 _INISEC	=	0xfe6d
                           00FE6E   855 _INISSEC	=	0xfe6e
                           00FE70   856 _YEAR	=	0xfe70
                           00FE71   857 _MONTH	=	0xfe71
                           00FE72   858 _DAY	=	0xfe72
                           00FE73   859 _HOUR	=	0xfe73
                           00FE74   860 _MIN	=	0xfe74
                           00FE75   861 _SEC	=	0xfe75
                           00FE76   862 _SSEC	=	0xfe76
                           00FA20   863 _DMA_SPI_CFG	=	0xfa20
                           00FA21   864 _DMA_SPI_CR	=	0xfa21
                           00FA22   865 _DMA_SPI_STA	=	0xfa22
                           00FA23   866 _DMA_SPI_AMT	=	0xfa23
                           00FA24   867 _DMA_SPI_DONE	=	0xfa24
                           00FA25   868 _DMA_SPI_TXAH	=	0xfa25
                           00FA26   869 _DMA_SPI_TXAL	=	0xfa26
                           00FA27   870 _DMA_SPI_RXAH	=	0xfa27
                           00FA28   871 _DMA_SPI_RXAL	=	0xfa28
                           00FA29   872 _DMA_SPI_CFG2	=	0xfa29
                           00FE01   873 _CLKDIV	=	0xfe01
                           00FE02   874 _HIRCCR	=	0xfe02
                           00FE03   875 _XOSCCR	=	0xfe03
                           00FE04   876 _IRC32KCR	=	0xfe04
                           00FE00   877 _CKSEL	=	0xfe00
                           00FE05   878 _MCLKOCR	=	0xfe05
                           00FE06   879 _IRCDB	=	0xfe06
                           00FE07   880 _IRC48MCR	=	0xfe07
                           00FEA2   881 _TM2PS	=	0xfea2
                           00FEA3   882 _TM3PS	=	0xfea3
                           00FEA4   883 _TM4PS	=	0xfea4
                           00FA30   884 _DMA_UR1T_CFG	=	0xfa30
                           00FA31   885 _DMA_UR1T_CR	=	0xfa31
                           00FA32   886 _DMA_UR1T_STA	=	0xfa32
                           00FA33   887 _DMA_URTX_AMT	=	0xfa33
                           00FA34   888 _DMA_UR1T_DONE	=	0xfa34
                           00FA35   889 _DMA_UR1T_TXAH	=	0xfa35
                           00FA36   890 _DMA_UR1T_TXAL	=	0xfa36
                           00FA38   891 _DMA_UR1R_CFG	=	0xfa38
                           00FA39   892 _DMA_UR1R_CR	=	0xfa39
                           00FA3A   893 _DMA_UR1R_STA	=	0xfa3a
                           00FA3B   894 _DMA_UR1R_AMT	=	0xfa3b
                           00FA3C   895 _DMA_UR1R_DONE	=	0xfa3c
                           00FA3D   896 _DMA_UR1R_TXAH	=	0xfa3d
                           00FA3E   897 _DMA_UR1R_TXAL	=	0xfa3e
                           00FA30   898 _DMA_UR2T_CFG	=	0xfa30
                           00FA31   899 _DMA_UR2T_CR	=	0xfa31
                           00FA32   900 _DMA_UR2T_STA	=	0xfa32
                           00FA33   901 _DMA_UR2T_AMT	=	0xfa33
                           00FA34   902 _DMA_UR2T_DONE	=	0xfa34
                           00FA35   903 _DMA_UR2T_TXAH	=	0xfa35
                           00FA36   904 _DMA_UR2T_TXAL	=	0xfa36
                           00FA38   905 _DMA_UR2R_CFG	=	0xfa38
                           00FA39   906 _DMA_UR2R_CR	=	0xfa39
                           00FA3A   907 _DMA_UR2R_STA	=	0xfa3a
                           00FA3B   908 _DMA_UR2R_AMT	=	0xfa3b
                           00FA3C   909 _DMA_UR2R_DONE	=	0xfa3c
                           00FA3D   910 _DMA_UR2R_TXAH	=	0xfa3d
                           00FA3E   911 _DMA_UR2R_TXAL	=	0xfa3e
                           00FA30   912 _DMA_UR3T_CFG	=	0xfa30
                           00FA31   913 _DMA_UR3T_CR	=	0xfa31
                           00FA32   914 _DMA_UR3T_STA	=	0xfa32
                           00FA33   915 _DMA_UR3T_AMT	=	0xfa33
                           00FA34   916 _DMA_UR3T_DONE	=	0xfa34
                           00FA35   917 _DMA_UR3T_TXAH	=	0xfa35
                           00FA36   918 _DMA_UR3T_TXAL	=	0xfa36
                           00FA38   919 _DMA_UR3R_CFG	=	0xfa38
                           00FA39   920 _DMA_UR3R_CR	=	0xfa39
                           00FA3A   921 _DMA_UR3R_STA	=	0xfa3a
                           00FA3B   922 _DMA_UR3R_AMT	=	0xfa3b
                           00FA3C   923 _DMA_UR3R_DONE	=	0xfa3c
                           00FA3D   924 _DMA_UR3R_TXAH	=	0xfa3d
                           00FA3E   925 _DMA_UR3R_TXAL	=	0xfa3e
                           00FA30   926 _DMA_UR4T_CFG	=	0xfa30
                           00FA31   927 _DMA_UR4T_CR	=	0xfa31
                           00FA32   928 _DMA_UR4T_STA	=	0xfa32
                           00FA33   929 _DMA_UR4T_AMT	=	0xfa33
                           00FA34   930 _DMA_UR4T_DONE	=	0xfa34
                           00FA35   931 _DMA_UR4T_TXAH	=	0xfa35
                           00FA36   932 _DMA_UR4T_TXAL	=	0xfa36
                           00FA38   933 _DMA_UR4R_CFG	=	0xfa38
                           00FA39   934 _DMA_UR4R_CR	=	0xfa39
                           00FA3A   935 _DMA_UR4R_STA	=	0xfa3a
                           00FA3B   936 _DMA_UR4R_AMT	=	0xfa3b
                           00FA3C   937 _DMA_UR4R_DONE	=	0xfa3c
                           00FA3D   938 _DMA_UR4R_TXAH	=	0xfa3d
                           00FA3E   939 _DMA_UR4R_TXAL	=	0xfa3e
      000000                        940 _uartGetCharacter_result_65536_69:
      000000                        941 	.ds 1
      000001                        942 _channelLastCount:
      000001                        943 	.ds 32
      000021                        944 _getChannelPin_PARM_2:
      000021                        945 	.ds 1
      000022                        946 _getChannelPin_PARM_3:
      000022                        947 	.ds 1
      000023                        948 _getChannelPin_channel_65536_148:
      000023                        949 	.ds 1
      000024                        950 _getChannelPin_index_65537_151:
      000024                        951 	.ds 1
      000025                        952 _configurePin_PARM_2:
      000025                        953 	.ds 1
      000026                        954 _configurePin_ioPin_65536_156:
      000026                        955 	.ds 1
      000027                        956 _configurePin_rc_65536_157:
      000027                        957 	.ds 1
      000028                        958 _configurePin_pinConfig_131072_158:
      000028                        959 	.ds 13
      000035                        960 _applyPinSwitch_PARM_2:
      000035                        961 	.ds 1
      000036                        962 _applyPinSwitch_channel_65536_159:
      000036                        963 	.ds 1
      000037                        964 _enableOutput_PARM_2:
      000037                        965 	.ds 1
      000038                        966 _enableOutput_channel_65536_164:
      000038                        967 	.ds 1
      000039                        968 _enableChannel_PARM_2:
      000039                        969 	.ds 1
      00003A                        970 _enableChannel_PARM_3:
      00003A                        971 	.ds 1
      00003B                        972 _enableChannel_channel_65536_168:
      00003B                        973 	.ds 1
      00003C                        974 _enableChannel_reg2_65536_169:
      00003C                        975 	.ds 1
      00003D                        976 _enableChannel_bitPos_131072_170:
      00003D                        977 	.ds 1
      00003E                        978 _enableChannel_bitPos_131072_175:
      00003E                        979 	.ds 1
      00003F                        980 _enableFaultControl_PARM_2:
      00003F                        981 	.ds 1
      000040                        982 _enableFaultControl_PARM_3:
      000040                        983 	.ds 1
      000041                        984 _enableFaultControl_PARM_4:
      000041                        985 	.ds 1
      000042                        986 _enableFaultControl_channel_65536_180:
      000042                        987 	.ds 1
      000043                        988 _closeChannel_channel_65536_185:
      000043                        989 	.ds 1
      000044                        990 _pwmConfigureOutput_PARM_2:
      000044                        991 	.ds 1
      000045                        992 _pwmConfigureOutput_PARM_3:
      000045                        993 	.ds 1
      000046                        994 _pwmConfigureOutput_PARM_4:
      000046                        995 	.ds 1
      000047                        996 _pwmConfigureOutput_PARM_5:
      000047                        997 	.ds 1
      000048                        998 _pwmConfigureOutput_PARM_6:
      000048                        999 	.ds 1
      000049                       1000 _pwmConfigureOutput_PARM_7:
      000049                       1001 	.ds 1
      00004A                       1002 _pwmConfigureOutput_channel_65536_188:
      00004A                       1003 	.ds 1
      00004B                       1004 _pwmConfigureOutput_ok_65537_191:
      00004B                       1005 	.ds 1
      00004C                       1006 _pwmConfigureCounter_PARM_2:
      00004C                       1007 	.ds 4
      000050                       1008 _pwmConfigureCounter_PARM_3:
      000050                       1009 	.ds 4
      000054                       1010 _pwmConfigureCounter_PARM_4:
      000054                       1011 	.ds 1
      000055                       1012 _pwmConfigureCounter_PARM_5:
      000055                       1013 	.ds 1
      000056                       1014 _pwmConfigureCounter_PARM_6:
      000056                       1015 	.ds 1
      000057                       1016 _pwmConfigureCounter_PARM_7:
      000057                       1017 	.ds 1
      000058                       1018 _pwmConfigureCounter_PARM_8:
      000058                       1019 	.ds 1
      000059                       1020 _pwmConfigureCounter_PARM_9:
      000059                       1021 	.ds 1
      00005A                       1022 _pwmConfigureCounter_PARM_10:
      00005A                       1023 	.ds 1
      00005B                       1024 _pwmConfigureCounter_PARM_11:
      00005B                       1025 	.ds 1
      00005C                       1026 _pwmConfigureCounter_counter_65536_197:
      00005C                       1027 	.ds 1
      00005D                       1028 _pwmConfigureCounter_prescaler_65536_198:
      00005D                       1029 	.ds 2
      00005F                       1030 _pwmConfigureCounter_reloadValue_65536_198:
      00005F                       1031 	.ds 2
      000061                       1032 _pwmEnableMainOutput_counter_65536_206:
      000061                       1033 	.ds 1
      000062                       1034 _pwmEnableCounter_counter_65536_209:
      000062                       1035 	.ds 1
      000063                       1036 _enableChannelInterrupt_channel_65536_212:
      000063                       1037 	.ds 1
      000064                       1038 _pwmInitialisePWM_PARM_2:
      000064                       1039 	.ds 1
      000065                       1040 _pwmInitialisePWM_PARM_3:
      000065                       1041 	.ds 1
      000066                       1042 _pwmInitialisePWM_PARM_4:
      000066                       1043 	.ds 1
      000067                       1044 _pwmInitialisePWM_PARM_5:
      000067                       1045 	.ds 2
      000069                       1046 _pwmInitialisePWM_channel_65536_216:
      000069                       1047 	.ds 1
      00006A                       1048 _pwmInitialisePWM_ccmr_65537_218:
      00006A                       1049 	.ds 1
      00006B                       1050 _pwmSetDutyCycle_PARM_2:
      00006B                       1051 	.ds 2
      00006D                       1052 _pwmSetDutyCycle_channel_65536_223:
      00006D                       1053 	.ds 1
      00006E                       1054 _configureInput_PARM_2:
      00006E                       1055 	.ds 1
      00006F                       1056 _configureInput_PARM_3:
      00006F                       1057 	.ds 1
      000070                       1058 _configureInput_PARM_4:
      000070                       1059 	.ds 1
      000071                       1060 _configureInput_PARM_5:
      000071                       1061 	.ds 1
      000072                       1062 _configureInput_channel_65536_226:
      000072                       1063 	.ds 1
      000073                       1064 _pwmInitialiseQuadratureEncoder_PARM_2:
      000073                       1065 	.ds 1
      000074                       1066 _pwmInitialiseQuadratureEncoder_PARM_3:
      000074                       1067 	.ds 1
      000075                       1068 _pwmInitialiseQuadratureEncoder_PARM_4:
      000075                       1069 	.ds 1
      000076                       1070 _pwmInitialiseQuadratureEncoder_counter_65536_230:
      000076                       1071 	.ds 1
      000077                       1072 _pwmInitialiseCapture_PARM_2:
      000077                       1073 	.ds 1
      000078                       1074 _pwmInitialiseCapture_PARM_3:
      000078                       1075 	.ds 1
      000079                       1076 _pwmInitialiseCapture_PARM_4:
      000079                       1077 	.ds 1
      00007A                       1078 _pwmInitialiseCapture_PARM_5:
      00007A                       1079 	.ds 1
      00007B                       1080 _pwmInitialiseCapture_PARM_6:
      00007B                       1081 	.ds 1
      00007C                       1082 _pwmInitialiseCapture_channel_65536_232:
      00007C                       1083 	.ds 1
      00007D                       1084 _pwmA_isr_channel_65536_236:
      00007D                       1085 	.ds 1
      00007E                       1086 _pwmA_isr_event_65536_236:
      00007E                       1087 	.ds 1
      00007F                       1088 _pwmA_isr_counter_262144_247:
      00007F                       1089 	.ds 2
      000081                       1090 _pwmA_isr_refIndex_262145_249:
      000081                       1091 	.ds 1
      000082                       1092 _pwmA_isr_channelNewCount_262146_252:
      000082                       1093 	.ds 4
      000086                       1094 _pwmA_isr_elapsed_262146_252:
      000086                       1095 	.ds 4
      00008A                       1096 _pwmB_isr_channel_65536_255:
      00008A                       1097 	.ds 1
      00008B                       1098 _pwmB_isr_event_65536_255:
      00008B                       1099 	.ds 1
      00008C                       1100 _pwmB_isr_counter_262144_266:
      00008C                       1101 	.ds 2
      00008E                       1102 _pwmB_isr_refIndex_262145_268:
      00008E                       1103 	.ds 1
      00008F                       1104 _pwmB_isr_channelNewCount_262146_271:
      00008F                       1105 	.ds 4
      000093                       1106 _pwmB_isr_elapsed_262146_271:
      000093                       1107 	.ds 4
                                   1108 ;--------------------------------------------------------
                                   1109 ; absolute external ram data
                                   1110 ;--------------------------------------------------------
                                   1111 	.area XABS    (ABS,XDATA)
                                   1112 ;--------------------------------------------------------
                                   1113 ; external initialized ram data
                                   1114 ;--------------------------------------------------------
                                   1115 	.area XISEG   (XDATA)
      000000                       1116 _channelUsage:
      000000                       1117 	.ds 8
      000008                       1118 _counterOverflow:
      000008                       1119 	.ds 4
                                   1120 	.area HOME    (CODE)
                                   1121 	.area GSINIT0 (CODE)
                                   1122 	.area GSINIT1 (CODE)
                                   1123 	.area GSINIT2 (CODE)
                                   1124 	.area GSINIT3 (CODE)
                                   1125 	.area GSINIT4 (CODE)
                                   1126 	.area GSINIT5 (CODE)
                                   1127 	.area GSINIT  (CODE)
                                   1128 	.area GSFINAL (CODE)
                                   1129 	.area CSEG    (CODE)
                                   1130 ;--------------------------------------------------------
                                   1131 ; global & static initialisations
                                   1132 ;--------------------------------------------------------
                                   1133 	.area HOME    (CODE)
                                   1134 	.area GSINIT  (CODE)
                                   1135 	.area GSFINAL (CODE)
                                   1136 	.area GSINIT  (CODE)
                                   1137 ;--------------------------------------------------------
                                   1138 ; Home
                                   1139 ;--------------------------------------------------------
                                   1140 	.area HOME    (CODE)
                                   1141 	.area HOME    (CODE)
                                   1142 ;--------------------------------------------------------
                                   1143 ; code
                                   1144 ;--------------------------------------------------------
                                   1145 	.area CSEG    (CODE)
                                   1146 ;------------------------------------------------------------
                                   1147 ;Allocation info for local variables in function 'getChannelPin'
                                   1148 ;------------------------------------------------------------
                                   1149 ;pinSwitch                 Allocated with name '_getChannelPin_PARM_2'
                                   1150 ;offset                    Allocated with name '_getChannelPin_PARM_3'
                                   1151 ;channel                   Allocated with name '_getChannelPin_channel_65536_148'
                                   1152 ;index                     Allocated with name '_getChannelPin_index_65537_151'
                                   1153 ;------------------------------------------------------------
                                   1154 ;	/home/mr-a-717/.stc/uni-stc/hal/advpwm-hal.c:138: static uint8_t getChannelPin(PWM_Channel channel, uint8_t pinSwitch, uint8_t offset) {
                                   1155 ;	-----------------------------------------
                                   1156 ;	 function getChannelPin
                                   1157 ;	-----------------------------------------
      000000                       1158 _getChannelPin:
                           000007  1159 	ar7 = 0x07
                           000006  1160 	ar6 = 0x06
                           000005  1161 	ar5 = 0x05
                           000004  1162 	ar4 = 0x04
                           000003  1163 	ar3 = 0x03
                           000002  1164 	ar2 = 0x02
                           000001  1165 	ar1 = 0x01
                           000000  1166 	ar0 = 0x00
      000000 E5 82            [12] 1167 	mov	a,dpl
      000002 90r00r23         [24] 1168 	mov	dptr,#_getChannelPin_channel_65536_148
      000005 F0               [24] 1169 	movx	@dptr,a
                                   1170 ;	/home/mr-a-717/.stc/uni-stc/hal/advpwm-hal.c:139: if (pinSwitch >= PIN_CONFIG_MAX) {
      000006 90r00r21         [24] 1171 	mov	dptr,#_getChannelPin_PARM_2
      000009 E0               [24] 1172 	movx	a,@dptr
      00000A FF               [12] 1173 	mov	r7,a
      00000B BF 03 00         [24] 1174 	cjne	r7,#0x03,00133$
      00000E                       1175 00133$:
      00000E 40 05            [24] 1176 	jc	00102$
                                   1177 ;	/home/mr-a-717/.stc/uni-stc/hal/advpwm-hal.c:140: pinSwitch = 0;
      000010 90r00r21         [24] 1178 	mov	dptr,#_getChannelPin_PARM_2
      000013 E4               [12] 1179 	clr	a
      000014 F0               [24] 1180 	movx	@dptr,a
      000015                       1181 00102$:
                                   1182 ;	/home/mr-a-717/.stc/uni-stc/hal/advpwm-hal.c:143: uint8_t index = channel;
      000015 90r00r23         [24] 1183 	mov	dptr,#_getChannelPin_channel_65536_148
      000018 E0               [24] 1184 	movx	a,@dptr
      000019 FF               [12] 1185 	mov	r7,a
      00001A 90r00r24         [24] 1186 	mov	dptr,#_getChannelPin_index_65537_151
      00001D F0               [24] 1187 	movx	@dptr,a
                                   1188 ;	/home/mr-a-717/.stc/uni-stc/hal/advpwm-hal.c:146: if (channel > PWM_Channel4) {
      00001E EF               [12] 1189 	mov	a,r7
      00001F 24 F7            [12] 1190 	add	a,#0xff - 0x08
      000021 50 06            [24] 1191 	jnc	00104$
                                   1192 ;	/home/mr-a-717/.stc/uni-stc/hal/advpwm-hal.c:147: index--;
      000023 EF               [12] 1193 	mov	a,r7
      000024 14               [12] 1194 	dec	a
      000025 90r00r24         [24] 1195 	mov	dptr,#_getChannelPin_index_65537_151
      000028 F0               [24] 1196 	movx	@dptr,a
      000029                       1197 00104$:
                                   1198 ;	/home/mr-a-717/.stc/uni-stc/hal/advpwm-hal.c:150: if (channel > PWM_Channel5) {
      000029 90r00r23         [24] 1199 	mov	dptr,#_getChannelPin_channel_65536_148
      00002C E0               [24] 1200 	movx	a,@dptr
      00002D FF               [12] 1201 	mov  r7,a
      00002E 24 F5            [12] 1202 	add	a,#0xff - 0x0a
      000030 50 06            [24] 1203 	jnc	00106$
                                   1204 ;	/home/mr-a-717/.stc/uni-stc/hal/advpwm-hal.c:151: index--;
      000032 90r00r24         [24] 1205 	mov	dptr,#_getChannelPin_index_65537_151
      000035 E0               [24] 1206 	movx	a,@dptr
      000036 14               [12] 1207 	dec	a
      000037 F0               [24] 1208 	movx	@dptr,a
      000038                       1209 00106$:
                                   1210 ;	/home/mr-a-717/.stc/uni-stc/hal/advpwm-hal.c:154: if (channel > PWM_Channel6) {
      000038 EF               [12] 1211 	mov	a,r7
      000039 24 F3            [12] 1212 	add	a,#0xff - 0x0c
      00003B 50 06            [24] 1213 	jnc	00108$
                                   1214 ;	/home/mr-a-717/.stc/uni-stc/hal/advpwm-hal.c:155: index--;
      00003D 90r00r24         [24] 1215 	mov	dptr,#_getChannelPin_index_65537_151
      000040 E0               [24] 1216 	movx	a,@dptr
      000041 14               [12] 1217 	dec	a
      000042 F0               [24] 1218 	movx	@dptr,a
      000043                       1219 00108$:
                                   1220 ;	/home/mr-a-717/.stc/uni-stc/hal/advpwm-hal.c:158: if (channel < PWM_Channel4) {
      000043 90r00r23         [24] 1221 	mov	dptr,#_getChannelPin_channel_65536_148
      000046 E0               [24] 1222 	movx	a,@dptr
      000047 FF               [12] 1223 	mov	r7,a
      000048 BF 08 00         [24] 1224 	cjne	r7,#0x08,00138$
      00004B                       1225 00138$:
      00004B 50 0B            [24] 1226 	jnc	00110$
                                   1227 ;	/home/mr-a-717/.stc/uni-stc/hal/advpwm-hal.c:160: index += offset;
      00004D 90r00r22         [24] 1228 	mov	dptr,#_getChannelPin_PARM_3
      000050 E0               [24] 1229 	movx	a,@dptr
      000051 FF               [12] 1230 	mov	r7,a
      000052 90r00r24         [24] 1231 	mov	dptr,#_getChannelPin_index_65537_151
      000055 E0               [24] 1232 	movx	a,@dptr
      000056 2F               [12] 1233 	add	a,r7
      000057 F0               [24] 1234 	movx	@dptr,a
      000058                       1235 00110$:
                                   1236 ;	/home/mr-a-717/.stc/uni-stc/hal/advpwm-hal.c:165: return __channelPinConfigurations[pinSwitch][index];
      000058 90r00r21         [24] 1237 	mov	dptr,#_getChannelPin_PARM_2
      00005B E0               [24] 1238 	movx	a,@dptr
      00005C 75 F0 0C         [24] 1239 	mov	b,#0x0c
      00005F A4               [48] 1240 	mul	ab
      000060 24rE0            [12] 1241 	add	a,#___channelPinConfigurations
      000062 FE               [12] 1242 	mov	r6,a
      000063 74s01            [12] 1243 	mov	a,#(___channelPinConfigurations >> 8)
      000065 35 F0            [12] 1244 	addc	a,b
      000067 FF               [12] 1245 	mov	r7,a
      000068 90r00r24         [24] 1246 	mov	dptr,#_getChannelPin_index_65537_151
      00006B E0               [24] 1247 	movx	a,@dptr
      00006C 2E               [12] 1248 	add	a,r6
      00006D F5 82            [12] 1249 	mov	dpl,a
      00006F E4               [12] 1250 	clr	a
      000070 3F               [12] 1251 	addc	a,r7
      000071 F5 83            [12] 1252 	mov	dph,a
      000073 E4               [12] 1253 	clr	a
      000074 93               [24] 1254 	movc	a,@a+dptr
                                   1255 ;	/home/mr-a-717/.stc/uni-stc/hal/advpwm-hal.c:166: }
      000075 F5 82            [12] 1256 	mov	dpl,a
      000077 22               [24] 1257 	ret
                                   1258 ;------------------------------------------------------------
                                   1259 ;Allocation info for local variables in function 'configurePin'
                                   1260 ;------------------------------------------------------------
                                   1261 ;pinMode                   Allocated with name '_configurePin_PARM_2'
                                   1262 ;ioPin                     Allocated with name '_configurePin_ioPin_65536_156'
                                   1263 ;port                      Allocated with name '_configurePin_port_65536_157'
                                   1264 ;pin                       Allocated with name '_configurePin_pin_65536_157'
                                   1265 ;rc                        Allocated with name '_configurePin_rc_65536_157'
                                   1266 ;pinConfig                 Allocated with name '_configurePin_pinConfig_131072_158'
                                   1267 ;------------------------------------------------------------
                                   1268 ;	/home/mr-a-717/.stc/uni-stc/hal/advpwm-hal.c:168: static bool configurePin(uint8_t ioPin, GpioPinMode pinMode) {
                                   1269 ;	-----------------------------------------
                                   1270 ;	 function configurePin
                                   1271 ;	-----------------------------------------
      000078                       1272 _configurePin:
      000078 E5 82            [12] 1273 	mov	a,dpl
      00007A 90r00r26         [24] 1274 	mov	dptr,#_configurePin_ioPin_65536_156
      00007D F0               [24] 1275 	movx	@dptr,a
                                   1276 ;	/home/mr-a-717/.stc/uni-stc/hal/advpwm-hal.c:169: GpioPort port = (GpioPort) (ioPin >> 4);
      00007E E0               [24] 1277 	movx	a,@dptr
      00007F FF               [12] 1278 	mov	r7,a
      000080 C4               [12] 1279 	swap	a
      000081 54 0F            [12] 1280 	anl	a,#0x0f
      000083 FE               [12] 1281 	mov	r6,a
                                   1282 ;	/home/mr-a-717/.stc/uni-stc/hal/advpwm-hal.c:170: GpioPin pin = (GpioPin) (ioPin & 0x0f);
      000084 53 07 0F         [24] 1283 	anl	ar7,#0x0f
                                   1284 ;	/home/mr-a-717/.stc/uni-stc/hal/advpwm-hal.c:171: bool rc = (port < 8 && pin < 8);
      000087 BE 08 00         [24] 1285 	cjne	r6,#0x08,00116$
      00008A                       1286 00116$:
      00008A 50 05            [24] 1287 	jnc	00105$
      00008C BF 08 00         [24] 1288 	cjne	r7,#0x08,00118$
      00008F                       1289 00118$:
      00008F 40 04            [24] 1290 	jc	00106$
      000091                       1291 00105$:
      000091 7D 00            [12] 1292 	mov	r5,#0x00
      000093 80 02            [24] 1293 	sjmp	00107$
      000095                       1294 00106$:
      000095 7D 01            [12] 1295 	mov	r5,#0x01
      000097                       1296 00107$:
      000097 90r00r27         [24] 1297 	mov	dptr,#_configurePin_rc_65536_157
      00009A ED               [12] 1298 	mov	a,r5
      00009B F0               [24] 1299 	movx	@dptr,a
                                   1300 ;	/home/mr-a-717/.stc/uni-stc/hal/advpwm-hal.c:173: if (rc) {
      00009C E0               [24] 1301 	movx	a,@dptr
      00009D 60 4B            [24] 1302 	jz	00102$
                                   1303 ;	/home/mr-a-717/.stc/uni-stc/hal/advpwm-hal.c:174: GpioConfig pinConfig = GPIO_PIN_CONFIG(port, pin, pinMode);
      00009F 90r00r28         [24] 1304 	mov	dptr,#_configurePin_pinConfig_131072_158
      0000A2 EE               [12] 1305 	mov	a,r6
      0000A3 F0               [24] 1306 	movx	@dptr,a
      0000A4 90r00r29         [24] 1307 	mov	dptr,#(_configurePin_pinConfig_131072_158 + 0x0001)
      0000A7 EF               [12] 1308 	mov	a,r7
      0000A8 F0               [24] 1309 	movx	@dptr,a
      0000A9 90r00r2A         [24] 1310 	mov	dptr,#(_configurePin_pinConfig_131072_158 + 0x0002)
      0000AC 74 01            [12] 1311 	mov	a,#0x01
      0000AE F0               [24] 1312 	movx	@dptr,a
      0000AF 90r00r25         [24] 1313 	mov	dptr,#_configurePin_PARM_2
      0000B2 E0               [24] 1314 	movx	a,@dptr
      0000B3 90r00r2B         [24] 1315 	mov	dptr,#(_configurePin_pinConfig_131072_158 + 0x0003)
      0000B6 F0               [24] 1316 	movx	@dptr,a
      0000B7 90r00r2C         [24] 1317 	mov	dptr,#(_configurePin_pinConfig_131072_158 + 0x0004)
      0000BA E4               [12] 1318 	clr	a
      0000BB F0               [24] 1319 	movx	@dptr,a
      0000BC 90r00r2D         [24] 1320 	mov	dptr,#(_configurePin_pinConfig_131072_158 + 0x0005)
      0000BF F0               [24] 1321 	movx	@dptr,a
      0000C0 90r00r2E         [24] 1322 	mov	dptr,#(_configurePin_pinConfig_131072_158 + 0x0006)
      0000C3 74 03            [12] 1323 	mov	a,#0x03
      0000C5 F0               [24] 1324 	movx	@dptr,a
      0000C6 90r00r2F         [24] 1325 	mov	dptr,#(_configurePin_pinConfig_131072_158 + 0x0007)
      0000C9 74 01            [12] 1326 	mov	a,#0x01
      0000CB F0               [24] 1327 	movx	@dptr,a
      0000CC 90r00r30         [24] 1328 	mov	dptr,#(_configurePin_pinConfig_131072_158 + 0x0008)
      0000CF E4               [12] 1329 	clr	a
      0000D0 F0               [24] 1330 	movx	@dptr,a
      0000D1 90r00r31         [24] 1331 	mov	dptr,#(_configurePin_pinConfig_131072_158 + 0x0009)
      0000D4 F0               [24] 1332 	movx	@dptr,a
      0000D5 90r00r32         [24] 1333 	mov	dptr,#(_configurePin_pinConfig_131072_158 + 0x000a)
      0000D8 F0               [24] 1334 	movx	@dptr,a
      0000D9 90r00r33         [24] 1335 	mov	dptr,#(_configurePin_pinConfig_131072_158 + 0x000b)
      0000DC F0               [24] 1336 	movx	@dptr,a
      0000DD 90r00r34         [24] 1337 	mov	dptr,#(_configurePin_pinConfig_131072_158 + 0x000c)
      0000E0 F0               [24] 1338 	movx	@dptr,a
                                   1339 ;	/home/mr-a-717/.stc/uni-stc/hal/advpwm-hal.c:175: gpioConfigure(&pinConfig);
      0000E1 90r00r28         [24] 1340 	mov	dptr,#_configurePin_pinConfig_131072_158
      0000E4 75 F0 00         [24] 1341 	mov	b,#0x00
      0000E7 12r00r00         [24] 1342 	lcall	_gpioConfigure
      0000EA                       1343 00102$:
                                   1344 ;	/home/mr-a-717/.stc/uni-stc/hal/advpwm-hal.c:178: return rc;
      0000EA 90r00r27         [24] 1345 	mov	dptr,#_configurePin_rc_65536_157
      0000ED E0               [24] 1346 	movx	a,@dptr
                                   1347 ;	/home/mr-a-717/.stc/uni-stc/hal/advpwm-hal.c:179: }
      0000EE F5 82            [12] 1348 	mov	dpl,a
      0000F0 22               [24] 1349 	ret
                                   1350 ;------------------------------------------------------------
                                   1351 ;Allocation info for local variables in function 'applyPinSwitch'
                                   1352 ;------------------------------------------------------------
                                   1353 ;pinSwitch                 Allocated with name '_applyPinSwitch_PARM_2'
                                   1354 ;channel                   Allocated with name '_applyPinSwitch_channel_65536_159'
                                   1355 ;------------------------------------------------------------
                                   1356 ;	/home/mr-a-717/.stc/uni-stc/hal/advpwm-hal.c:181: static void applyPinSwitch(PWM_Channel channel, uint8_t pinSwitch) {
                                   1357 ;	-----------------------------------------
                                   1358 ;	 function applyPinSwitch
                                   1359 ;	-----------------------------------------
      0000F1                       1360 _applyPinSwitch:
      0000F1 E5 82            [12] 1361 	mov	a,dpl
      0000F3 90r00r36         [24] 1362 	mov	dptr,#_applyPinSwitch_channel_65536_159
      0000F6 F0               [24] 1363 	movx	@dptr,a
                                   1364 ;	/home/mr-a-717/.stc/uni-stc/hal/advpwm-hal.c:182: if (pinSwitch >= PIN_CONFIG_MAX) {
      0000F7 90r00r35         [24] 1365 	mov	dptr,#_applyPinSwitch_PARM_2
      0000FA E0               [24] 1366 	movx	a,@dptr
      0000FB FF               [12] 1367 	mov	r7,a
      0000FC BF 03 00         [24] 1368 	cjne	r7,#0x03,00116$
      0000FF                       1369 00116$:
      0000FF 40 05            [24] 1370 	jc	00102$
                                   1371 ;	/home/mr-a-717/.stc/uni-stc/hal/advpwm-hal.c:183: pinSwitch = 0;
      000101 90r00r35         [24] 1372 	mov	dptr,#_applyPinSwitch_PARM_2
      000104 E4               [12] 1373 	clr	a
      000105 F0               [24] 1374 	movx	@dptr,a
      000106                       1375 00102$:
                                   1376 ;	/home/mr-a-717/.stc/uni-stc/hal/advpwm-hal.c:187: if (channel < PWM_Channel4) {
      000106 90r00r36         [24] 1377 	mov	dptr,#_applyPinSwitch_channel_65536_159
      000109 E0               [24] 1378 	movx	a,@dptr
      00010A FF               [12] 1379 	mov	r7,a
      00010B BF 08 00         [24] 1380 	cjne	r7,#0x08,00118$
      00010E                       1381 00118$:
      00010E 50 2C            [24] 1382 	jnc	00104$
                                   1383 ;	/home/mr-a-717/.stc/uni-stc/hal/advpwm-hal.c:189: PWMA_PS = (PWMA_PS & ~(3 << channel)) | (pinSwitch << channel);
      000110 8F 06            [24] 1384 	mov	ar6,r7
      000112 8E F0            [24] 1385 	mov	b,r6
      000114 05 F0            [12] 1386 	inc	b
      000116 74 03            [12] 1387 	mov	a,#0x03
      000118 80 02            [24] 1388 	sjmp	00122$
      00011A                       1389 00120$:
      00011A 25 E0            [12] 1390 	add	a,acc
      00011C                       1391 00122$:
      00011C D5 F0 FB         [24] 1392 	djnz	b,00120$
      00011F F4               [12] 1393 	cpl	a
      000120 FE               [12] 1394 	mov	r6,a
      000121 90 FE B2         [24] 1395 	mov	dptr,#_PWMA_PS
      000124 E0               [24] 1396 	movx	a,@dptr
      000125 52 06            [12] 1397 	anl	ar6,a
      000127 90r00r35         [24] 1398 	mov	dptr,#_applyPinSwitch_PARM_2
      00012A E0               [24] 1399 	movx	a,@dptr
      00012B 8F F0            [24] 1400 	mov	b,r7
      00012D 05 F0            [12] 1401 	inc	b
      00012F 80 02            [24] 1402 	sjmp	00125$
      000131                       1403 00123$:
      000131 25 E0            [12] 1404 	add	a,acc
      000133                       1405 00125$:
      000133 D5 F0 FB         [24] 1406 	djnz	b,00123$
      000136 90 FE B2         [24] 1407 	mov	dptr,#_PWMA_PS
      000139 4E               [12] 1408 	orl	a,r6
      00013A F0               [24] 1409 	movx	@dptr,a
      00013B 22               [24] 1410 	ret
      00013C                       1411 00104$:
                                   1412 ;	/home/mr-a-717/.stc/uni-stc/hal/advpwm-hal.c:192: channel -= 8;
      00013C EF               [12] 1413 	mov	a,r7
      00013D 24 F8            [12] 1414 	add	a,#0xf8
      00013F 90r00r36         [24] 1415 	mov	dptr,#_applyPinSwitch_channel_65536_159
      000142 F0               [24] 1416 	movx	@dptr,a
                                   1417 ;	/home/mr-a-717/.stc/uni-stc/hal/advpwm-hal.c:193: PWMB_PS = (PWMB_PS & ~(3 << channel)) | (pinSwitch << channel);
      000143 E0               [24] 1418 	movx	a,@dptr
      000144 FF               [12] 1419 	mov	r7,a
      000145 FE               [12] 1420 	mov	r6,a
      000146 8E F0            [24] 1421 	mov	b,r6
      000148 05 F0            [12] 1422 	inc	b
      00014A 74 03            [12] 1423 	mov	a,#0x03
      00014C 80 02            [24] 1424 	sjmp	00128$
      00014E                       1425 00126$:
      00014E 25 E0            [12] 1426 	add	a,acc
      000150                       1427 00128$:
      000150 D5 F0 FB         [24] 1428 	djnz	b,00126$
      000153 F4               [12] 1429 	cpl	a
      000154 FE               [12] 1430 	mov	r6,a
      000155 90 FE B6         [24] 1431 	mov	dptr,#_PWMB_PS
      000158 E0               [24] 1432 	movx	a,@dptr
      000159 52 06            [12] 1433 	anl	ar6,a
      00015B 90r00r35         [24] 1434 	mov	dptr,#_applyPinSwitch_PARM_2
      00015E E0               [24] 1435 	movx	a,@dptr
      00015F 8F F0            [24] 1436 	mov	b,r7
      000161 05 F0            [12] 1437 	inc	b
      000163 80 02            [24] 1438 	sjmp	00131$
      000165                       1439 00129$:
      000165 25 E0            [12] 1440 	add	a,acc
      000167                       1441 00131$:
      000167 D5 F0 FB         [24] 1442 	djnz	b,00129$
      00016A 90 FE B6         [24] 1443 	mov	dptr,#_PWMB_PS
      00016D 4E               [12] 1444 	orl	a,r6
      00016E F0               [24] 1445 	movx	@dptr,a
                                   1446 ;	/home/mr-a-717/.stc/uni-stc/hal/advpwm-hal.c:196: }
      00016F 22               [24] 1447 	ret
                                   1448 ;------------------------------------------------------------
                                   1449 ;Allocation info for local variables in function 'enableOutput'
                                   1450 ;------------------------------------------------------------
                                   1451 ;offset                    Allocated with name '_enableOutput_PARM_2'
                                   1452 ;channel                   Allocated with name '_enableOutput_channel_65536_164'
                                   1453 ;------------------------------------------------------------
                                   1454 ;	/home/mr-a-717/.stc/uni-stc/hal/advpwm-hal.c:198: static void enableOutput(PWM_Channel channel, uint8_t offset) {
                                   1455 ;	-----------------------------------------
                                   1456 ;	 function enableOutput
                                   1457 ;	-----------------------------------------
      000170                       1458 _enableOutput:
      000170 E5 82            [12] 1459 	mov	a,dpl
      000172 90r00r38         [24] 1460 	mov	dptr,#_enableOutput_channel_65536_164
      000175 F0               [24] 1461 	movx	@dptr,a
                                   1462 ;	/home/mr-a-717/.stc/uni-stc/hal/advpwm-hal.c:200: if (channel < PWM_Channel4) {
      000176 E0               [24] 1463 	movx	a,@dptr
      000177 FF               [12] 1464 	mov	r7,a
      000178 BF 08 00         [24] 1465 	cjne	r7,#0x08,00110$
      00017B                       1466 00110$:
      00017B 50 1B            [24] 1467 	jnc	00102$
                                   1468 ;	/home/mr-a-717/.stc/uni-stc/hal/advpwm-hal.c:202: PWMA_ENO |= 1 << (channel + offset);
      00017D 90r00r37         [24] 1469 	mov	dptr,#_enableOutput_PARM_2
      000180 E0               [24] 1470 	movx	a,@dptr
      000181 2F               [12] 1471 	add	a,r7
      000182 FE               [12] 1472 	mov	r6,a
      000183 8E F0            [24] 1473 	mov	b,r6
      000185 05 F0            [12] 1474 	inc	b
      000187 74 01            [12] 1475 	mov	a,#0x01
      000189 80 02            [24] 1476 	sjmp	00114$
      00018B                       1477 00112$:
      00018B 25 E0            [12] 1478 	add	a,acc
      00018D                       1479 00114$:
      00018D D5 F0 FB         [24] 1480 	djnz	b,00112$
      000190 FE               [12] 1481 	mov	r6,a
      000191 90 FE B1         [24] 1482 	mov	dptr,#_PWMA_ENO
      000194 E0               [24] 1483 	movx	a,@dptr
      000195 4E               [12] 1484 	orl	a,r6
      000196 F0               [24] 1485 	movx	@dptr,a
      000197 22               [24] 1486 	ret
      000198                       1487 00102$:
                                   1488 ;	/home/mr-a-717/.stc/uni-stc/hal/advpwm-hal.c:205: PWMB_ENO |= 1 << (channel - PWM_Channel4);
      000198 EF               [12] 1489 	mov	a,r7
      000199 24 F8            [12] 1490 	add	a,#0xf8
      00019B F5 F0            [12] 1491 	mov	b,a
      00019D 05 F0            [12] 1492 	inc	b
      00019F 74 01            [12] 1493 	mov	a,#0x01
      0001A1 80 02            [24] 1494 	sjmp	00117$
      0001A3                       1495 00115$:
      0001A3 25 E0            [12] 1496 	add	a,acc
      0001A5                       1497 00117$:
      0001A5 D5 F0 FB         [24] 1498 	djnz	b,00115$
      0001A8 FF               [12] 1499 	mov	r7,a
      0001A9 90 FE B5         [24] 1500 	mov	dptr,#_PWMB_ENO
      0001AC E0               [24] 1501 	movx	a,@dptr
      0001AD 4F               [12] 1502 	orl	a,r7
      0001AE F0               [24] 1503 	movx	@dptr,a
                                   1504 ;	/home/mr-a-717/.stc/uni-stc/hal/advpwm-hal.c:208: }
      0001AF 22               [24] 1505 	ret
                                   1506 ;------------------------------------------------------------
                                   1507 ;Allocation info for local variables in function 'enableChannel'
                                   1508 ;------------------------------------------------------------
                                   1509 ;offset                    Allocated with name '_enableChannel_PARM_2'
                                   1510 ;polarity                  Allocated with name '_enableChannel_PARM_3'
                                   1511 ;channel                   Allocated with name '_enableChannel_channel_65536_168'
                                   1512 ;reg2                      Allocated with name '_enableChannel_reg2_65536_169'
                                   1513 ;bitVal                    Allocated with name '_enableChannel_bitVal_65536_169'
                                   1514 ;bitPos                    Allocated with name '_enableChannel_bitPos_131072_170'
                                   1515 ;bitMask                   Allocated with name '_enableChannel_bitMask_131073_172'
                                   1516 ;bitPos                    Allocated with name '_enableChannel_bitPos_131072_175'
                                   1517 ;bitMask                   Allocated with name '_enableChannel_bitMask_131073_177'
                                   1518 ;------------------------------------------------------------
                                   1519 ;	/home/mr-a-717/.stc/uni-stc/hal/advpwm-hal.c:210: static void enableChannel(PWM_Channel channel, uint8_t offset, PWM_Polarity polarity) {
                                   1520 ;	-----------------------------------------
                                   1521 ;	 function enableChannel
                                   1522 ;	-----------------------------------------
      0001B0                       1523 _enableChannel:
      0001B0 E5 82            [12] 1524 	mov	a,dpl
      0001B2 90r00r3B         [24] 1525 	mov	dptr,#_enableChannel_channel_65536_168
      0001B5 F0               [24] 1526 	movx	@dptr,a
                                   1527 ;	/home/mr-a-717/.stc/uni-stc/hal/advpwm-hal.c:211: bool reg2 = false;
      0001B6 90r00r3C         [24] 1528 	mov	dptr,#_enableChannel_reg2_65536_169
      0001B9 E4               [12] 1529 	clr	a
      0001BA F0               [24] 1530 	movx	@dptr,a
                                   1531 ;	/home/mr-a-717/.stc/uni-stc/hal/advpwm-hal.c:212: uint8_t bitVal = (polarity << 1) | 1;
      0001BB 90r00r3A         [24] 1532 	mov	dptr,#_enableChannel_PARM_3
      0001BE E0               [24] 1533 	movx	a,@dptr
      0001BF 25 E0            [12] 1534 	add	a,acc
      0001C1 FF               [12] 1535 	mov	r7,a
      0001C2 43 07 01         [24] 1536 	orl	ar7,#0x01
                                   1537 ;	/home/mr-a-717/.stc/uni-stc/hal/advpwm-hal.c:215: if (channel < PWM_Channel4) {
      0001C5 90r00r3B         [24] 1538 	mov	dptr,#_enableChannel_channel_65536_168
      0001C8 E0               [24] 1539 	movx	a,@dptr
      0001C9 FE               [12] 1540 	mov	r6,a
      0001CA BE 08 00         [24] 1541 	cjne	r6,#0x08,00136$
      0001CD                       1542 00136$:
      0001CD 50 58            [24] 1543 	jnc	00112$
                                   1544 ;	/home/mr-a-717/.stc/uni-stc/hal/advpwm-hal.c:217: uint8_t bitPos = (channel + offset) << 1;
      0001CF 90r00r39         [24] 1545 	mov	dptr,#_enableChannel_PARM_2
      0001D2 E0               [24] 1546 	movx	a,@dptr
      0001D3 2E               [12] 1547 	add	a,r6
      0001D4 25 E0            [12] 1548 	add	a,acc
      0001D6 FD               [12] 1549 	mov	r5,a
      0001D7 90r00r3D         [24] 1550 	mov	dptr,#_enableChannel_bitPos_131072_170
      0001DA F0               [24] 1551 	movx	@dptr,a
                                   1552 ;	/home/mr-a-717/.stc/uni-stc/hal/advpwm-hal.c:219: if (bitPos > 7) {
      0001DB 8D 04            [24] 1553 	mov	ar4,r5
      0001DD EC               [12] 1554 	mov	a,r4
      0001DE 24 F8            [12] 1555 	add	a,#0xff - 0x07
      0001E0 50 0D            [24] 1556 	jnc	00102$
                                   1557 ;	/home/mr-a-717/.stc/uni-stc/hal/advpwm-hal.c:220: bitPos -= 8;
      0001E2 ED               [12] 1558 	mov	a,r5
      0001E3 24 F8            [12] 1559 	add	a,#0xf8
      0001E5 90r00r3D         [24] 1560 	mov	dptr,#_enableChannel_bitPos_131072_170
      0001E8 F0               [24] 1561 	movx	@dptr,a
                                   1562 ;	/home/mr-a-717/.stc/uni-stc/hal/advpwm-hal.c:221: reg2 = true;
      0001E9 90r00r3C         [24] 1563 	mov	dptr,#_enableChannel_reg2_65536_169
      0001EC 74 01            [12] 1564 	mov	a,#0x01
      0001EE F0               [24] 1565 	movx	@dptr,a
      0001EF                       1566 00102$:
                                   1567 ;	/home/mr-a-717/.stc/uni-stc/hal/advpwm-hal.c:224: uint8_t bitMask = ~(3 << bitPos);
      0001EF 90r00r3D         [24] 1568 	mov	dptr,#_enableChannel_bitPos_131072_170
      0001F2 E0               [24] 1569 	movx	a,@dptr
      0001F3 FD               [12] 1570 	mov	r5,a
      0001F4 FC               [12] 1571 	mov	r4,a
      0001F5 8C F0            [24] 1572 	mov	b,r4
      0001F7 05 F0            [12] 1573 	inc	b
      0001F9 74 03            [12] 1574 	mov	a,#0x03
      0001FB 80 02            [24] 1575 	sjmp	00141$
      0001FD                       1576 00139$:
      0001FD 25 E0            [12] 1577 	add	a,acc
      0001FF                       1578 00141$:
      0001FF D5 F0 FB         [24] 1579 	djnz	b,00139$
      000202 F4               [12] 1580 	cpl	a
      000203 FC               [12] 1581 	mov	r4,a
                                   1582 ;	/home/mr-a-717/.stc/uni-stc/hal/advpwm-hal.c:225: bitVal <<= bitPos;
      000204 8D F0            [24] 1583 	mov	b,r5
      000206 05 F0            [12] 1584 	inc	b
      000208 EF               [12] 1585 	mov	a,r7
      000209 80 02            [24] 1586 	sjmp	00144$
      00020B                       1587 00142$:
      00020B 25 E0            [12] 1588 	add	a,acc
      00020D                       1589 00144$:
      00020D D5 F0 FB         [24] 1590 	djnz	b,00142$
      000210 FD               [12] 1591 	mov	r5,a
                                   1592 ;	/home/mr-a-717/.stc/uni-stc/hal/advpwm-hal.c:227: if (reg2) {
      000211 90r00r3C         [24] 1593 	mov	dptr,#_enableChannel_reg2_65536_169
      000214 E0               [24] 1594 	movx	a,@dptr
      000215 60 08            [24] 1595 	jz	00104$
                                   1596 ;	/home/mr-a-717/.stc/uni-stc/hal/advpwm-hal.c:228: PWMA_CCER2 = (PWMA_CCER2 & bitMask) | bitVal;
      000217 90 FE CD         [24] 1597 	mov	dptr,#_PWMA_CCER2
      00021A E0               [24] 1598 	movx	a,@dptr
      00021B 5C               [12] 1599 	anl	a,r4
      00021C 4D               [12] 1600 	orl	a,r5
      00021D F0               [24] 1601 	movx	@dptr,a
      00021E 22               [24] 1602 	ret
      00021F                       1603 00104$:
                                   1604 ;	/home/mr-a-717/.stc/uni-stc/hal/advpwm-hal.c:230: PWMA_CCER1 = (PWMA_CCER1 & bitMask) | bitVal;
      00021F 90 FE CC         [24] 1605 	mov	dptr,#_PWMA_CCER1
      000222 E0               [24] 1606 	movx	a,@dptr
      000223 5C               [12] 1607 	anl	a,r4
      000224 4D               [12] 1608 	orl	a,r5
      000225 F0               [24] 1609 	movx	@dptr,a
      000226 22               [24] 1610 	ret
      000227                       1611 00112$:
                                   1612 ;	/home/mr-a-717/.stc/uni-stc/hal/advpwm-hal.c:234: uint8_t bitPos = (channel - PWM_Channel4) << 1;
      000227 EE               [12] 1613 	mov	a,r6
      000228 24 F8            [12] 1614 	add	a,#0xf8
      00022A 25 E0            [12] 1615 	add	a,acc
      00022C FE               [12] 1616 	mov	r6,a
      00022D 90r00r3E         [24] 1617 	mov	dptr,#_enableChannel_bitPos_131072_175
      000230 F0               [24] 1618 	movx	@dptr,a
                                   1619 ;	/home/mr-a-717/.stc/uni-stc/hal/advpwm-hal.c:236: if (bitPos > 7) {
      000231 8E 05            [24] 1620 	mov	ar5,r6
      000233 ED               [12] 1621 	mov	a,r5
      000234 24 F8            [12] 1622 	add	a,#0xff - 0x07
      000236 50 0D            [24] 1623 	jnc	00107$
                                   1624 ;	/home/mr-a-717/.stc/uni-stc/hal/advpwm-hal.c:237: bitPos -= 8;
      000238 EE               [12] 1625 	mov	a,r6
      000239 24 F8            [12] 1626 	add	a,#0xf8
      00023B 90r00r3E         [24] 1627 	mov	dptr,#_enableChannel_bitPos_131072_175
      00023E F0               [24] 1628 	movx	@dptr,a
                                   1629 ;	/home/mr-a-717/.stc/uni-stc/hal/advpwm-hal.c:238: reg2 = true;
      00023F 90r00r3C         [24] 1630 	mov	dptr,#_enableChannel_reg2_65536_169
      000242 74 01            [12] 1631 	mov	a,#0x01
      000244 F0               [24] 1632 	movx	@dptr,a
      000245                       1633 00107$:
                                   1634 ;	/home/mr-a-717/.stc/uni-stc/hal/advpwm-hal.c:241: uint8_t bitMask = ~(3 << bitPos);
      000245 90r00r3E         [24] 1635 	mov	dptr,#_enableChannel_bitPos_131072_175
      000248 E0               [24] 1636 	movx	a,@dptr
      000249 FE               [12] 1637 	mov	r6,a
      00024A FD               [12] 1638 	mov	r5,a
      00024B 8D F0            [24] 1639 	mov	b,r5
      00024D 05 F0            [12] 1640 	inc	b
      00024F 74 03            [12] 1641 	mov	a,#0x03
      000251 80 02            [24] 1642 	sjmp	00149$
      000253                       1643 00147$:
      000253 25 E0            [12] 1644 	add	a,acc
      000255                       1645 00149$:
      000255 D5 F0 FB         [24] 1646 	djnz	b,00147$
      000258 F4               [12] 1647 	cpl	a
      000259 FD               [12] 1648 	mov	r5,a
                                   1649 ;	/home/mr-a-717/.stc/uni-stc/hal/advpwm-hal.c:242: bitVal <<= bitPos;
      00025A 8E F0            [24] 1650 	mov	b,r6
      00025C 05 F0            [12] 1651 	inc	b
      00025E EF               [12] 1652 	mov	a,r7
      00025F 80 02            [24] 1653 	sjmp	00152$
      000261                       1654 00150$:
      000261 25 E0            [12] 1655 	add	a,acc
      000263                       1656 00152$:
      000263 D5 F0 FB         [24] 1657 	djnz	b,00150$
      000266 FF               [12] 1658 	mov	r7,a
                                   1659 ;	/home/mr-a-717/.stc/uni-stc/hal/advpwm-hal.c:244: if (reg2) {
      000267 90r00r3C         [24] 1660 	mov	dptr,#_enableChannel_reg2_65536_169
      00026A E0               [24] 1661 	movx	a,@dptr
      00026B 60 08            [24] 1662 	jz	00109$
                                   1663 ;	/home/mr-a-717/.stc/uni-stc/hal/advpwm-hal.c:245: PWMB_CCER2 = (PWMB_CCER2 & bitMask) | bitVal;
      00026D 90 FE ED         [24] 1664 	mov	dptr,#_PWMB_CCER2
      000270 E0               [24] 1665 	movx	a,@dptr
      000271 5D               [12] 1666 	anl	a,r5
      000272 4F               [12] 1667 	orl	a,r7
      000273 F0               [24] 1668 	movx	@dptr,a
      000274 22               [24] 1669 	ret
      000275                       1670 00109$:
                                   1671 ;	/home/mr-a-717/.stc/uni-stc/hal/advpwm-hal.c:247: PWMB_CCER1 = (PWMB_CCER1 & bitMask) | bitVal;
      000275 90 FE EC         [24] 1672 	mov	dptr,#_PWMB_CCER1
      000278 E0               [24] 1673 	movx	a,@dptr
      000279 5D               [12] 1674 	anl	a,r5
      00027A 4F               [12] 1675 	orl	a,r7
      00027B F0               [24] 1676 	movx	@dptr,a
                                   1677 ;	/home/mr-a-717/.stc/uni-stc/hal/advpwm-hal.c:251: }
      00027C 22               [24] 1678 	ret
                                   1679 ;------------------------------------------------------------
                                   1680 ;Allocation info for local variables in function 'enableFaultControl'
                                   1681 ;------------------------------------------------------------
                                   1682 ;offset                    Allocated with name '_enableFaultControl_PARM_2'
                                   1683 ;faultControl              Allocated with name '_enableFaultControl_PARM_3'
                                   1684 ;idleLevel                 Allocated with name '_enableFaultControl_PARM_4'
                                   1685 ;channel                   Allocated with name '_enableFaultControl_channel_65536_180'
                                   1686 ;------------------------------------------------------------
                                   1687 ;	/home/mr-a-717/.stc/uni-stc/hal/advpwm-hal.c:253: static void enableFaultControl(PWM_Channel channel, uint8_t offset, PWM_FaultControl faultControl, OutputLevel idleLevel) {
                                   1688 ;	-----------------------------------------
                                   1689 ;	 function enableFaultControl
                                   1690 ;	-----------------------------------------
      00027D                       1691 _enableFaultControl:
      00027D E5 82            [12] 1692 	mov	a,dpl
      00027F 90r00r42         [24] 1693 	mov	dptr,#_enableFaultControl_channel_65536_180
      000282 F0               [24] 1694 	movx	@dptr,a
                                   1695 ;	/home/mr-a-717/.stc/uni-stc/hal/advpwm-hal.c:254: if (faultControl == PWM_ENABLE_FAULT_CONTROL) {
      000283 90r00r40         [24] 1696 	mov	dptr,#_enableFaultControl_PARM_3
      000286 E0               [24] 1697 	movx	a,@dptr
      000287 FF               [12] 1698 	mov	r7,a
      000288 BF 01 6E         [24] 1699 	cjne	r7,#0x01,00106$
                                   1700 ;	/home/mr-a-717/.stc/uni-stc/hal/advpwm-hal.c:256: if (channel < PWM_Channel4) {
      00028B 90r00r42         [24] 1701 	mov	dptr,#_enableFaultControl_channel_65536_180
      00028E E0               [24] 1702 	movx	a,@dptr
      00028F FF               [12] 1703 	mov	r7,a
      000290 BF 08 00         [24] 1704 	cjne	r7,#0x08,00118$
      000293                       1705 00118$:
      000293 50 32            [24] 1706 	jnc	00102$
                                   1707 ;	/home/mr-a-717/.stc/uni-stc/hal/advpwm-hal.c:258: PWMA_IOAUX |= 1 << (channel + offset);
      000295 90r00r3F         [24] 1708 	mov	dptr,#_enableFaultControl_PARM_2
      000298 E0               [24] 1709 	movx	a,@dptr
      000299 2F               [12] 1710 	add	a,r7
      00029A FE               [12] 1711 	mov	r6,a
      00029B FD               [12] 1712 	mov	r5,a
      00029C 8D F0            [24] 1713 	mov	b,r5
      00029E 05 F0            [12] 1714 	inc	b
      0002A0 74 01            [12] 1715 	mov	a,#0x01
      0002A2 80 02            [24] 1716 	sjmp	00122$
      0002A4                       1717 00120$:
      0002A4 25 E0            [12] 1718 	add	a,acc
      0002A6                       1719 00122$:
      0002A6 D5 F0 FB         [24] 1720 	djnz	b,00120$
      0002A9 FD               [12] 1721 	mov	r5,a
      0002AA 90 FE B3         [24] 1722 	mov	dptr,#_PWMA_IOAUX
      0002AD E0               [24] 1723 	movx	a,@dptr
      0002AE 4D               [12] 1724 	orl	a,r5
      0002AF F0               [24] 1725 	movx	@dptr,a
                                   1726 ;	/home/mr-a-717/.stc/uni-stc/hal/advpwm-hal.c:259: PWMA_OISR |= idleLevel << (channel + offset);
      0002B0 90r00r41         [24] 1727 	mov	dptr,#_enableFaultControl_PARM_4
      0002B3 E0               [24] 1728 	movx	a,@dptr
      0002B4 8E F0            [24] 1729 	mov	b,r6
      0002B6 05 F0            [12] 1730 	inc	b
      0002B8 80 02            [24] 1731 	sjmp	00125$
      0002BA                       1732 00123$:
      0002BA 25 E0            [12] 1733 	add	a,acc
      0002BC                       1734 00125$:
      0002BC D5 F0 FB         [24] 1735 	djnz	b,00123$
      0002BF FE               [12] 1736 	mov	r6,a
      0002C0 90 FE DF         [24] 1737 	mov	dptr,#_PWMA_OISR
      0002C3 E0               [24] 1738 	movx	a,@dptr
      0002C4 4E               [12] 1739 	orl	a,r6
      0002C5 F0               [24] 1740 	movx	@dptr,a
      0002C6 22               [24] 1741 	ret
      0002C7                       1742 00102$:
                                   1743 ;	/home/mr-a-717/.stc/uni-stc/hal/advpwm-hal.c:262: PWMB_IOAUX |= 1 << (channel - PWM_Channel4);
      0002C7 EF               [12] 1744 	mov	a,r7
      0002C8 24 F8            [12] 1745 	add	a,#0xf8
      0002CA FF               [12] 1746 	mov	r7,a
      0002CB 8F F0            [24] 1747 	mov	b,r7
      0002CD 05 F0            [12] 1748 	inc	b
      0002CF 74 01            [12] 1749 	mov	a,#0x01
      0002D1 80 02            [24] 1750 	sjmp	00128$
      0002D3                       1751 00126$:
      0002D3 25 E0            [12] 1752 	add	a,acc
      0002D5                       1753 00128$:
      0002D5 D5 F0 FB         [24] 1754 	djnz	b,00126$
      0002D8 FE               [12] 1755 	mov	r6,a
      0002D9 90 FE B7         [24] 1756 	mov	dptr,#_PWMB_IOAUX
      0002DC E0               [24] 1757 	movx	a,@dptr
      0002DD FD               [12] 1758 	mov	r5,a
      0002DE 4E               [12] 1759 	orl	a,r6
      0002DF F0               [24] 1760 	movx	@dptr,a
                                   1761 ;	/home/mr-a-717/.stc/uni-stc/hal/advpwm-hal.c:263: PWMB_OISR |= idleLevel << (channel - PWM_Channel4);
      0002E0 90r00r41         [24] 1762 	mov	dptr,#_enableFaultControl_PARM_4
      0002E3 E0               [24] 1763 	movx	a,@dptr
      0002E4 FE               [12] 1764 	mov	r6,a
      0002E5 8F F0            [24] 1765 	mov	b,r7
      0002E7 05 F0            [12] 1766 	inc	b
      0002E9 EE               [12] 1767 	mov	a,r6
      0002EA 80 02            [24] 1768 	sjmp	00131$
      0002EC                       1769 00129$:
      0002EC 25 E0            [12] 1770 	add	a,acc
      0002EE                       1771 00131$:
      0002EE D5 F0 FB         [24] 1772 	djnz	b,00129$
      0002F1 FF               [12] 1773 	mov	r7,a
      0002F2 90 FE FF         [24] 1774 	mov	dptr,#_PWMB_OISR
      0002F5 E0               [24] 1775 	movx	a,@dptr
      0002F6 FE               [12] 1776 	mov	r6,a
      0002F7 4F               [12] 1777 	orl	a,r7
      0002F8 F0               [24] 1778 	movx	@dptr,a
      0002F9                       1779 00106$:
                                   1780 ;	/home/mr-a-717/.stc/uni-stc/hal/advpwm-hal.c:267: }
      0002F9 22               [24] 1781 	ret
                                   1782 ;------------------------------------------------------------
                                   1783 ;Allocation info for local variables in function 'closeChannel'
                                   1784 ;------------------------------------------------------------
                                   1785 ;channel                   Allocated with name '_closeChannel_channel_65536_185'
                                   1786 ;------------------------------------------------------------
                                   1787 ;	/home/mr-a-717/.stc/uni-stc/hal/advpwm-hal.c:269: static void closeChannel(PWM_Channel channel) {
                                   1788 ;	-----------------------------------------
                                   1789 ;	 function closeChannel
                                   1790 ;	-----------------------------------------
      0002FA                       1791 _closeChannel:
      0002FA E5 82            [12] 1792 	mov	a,dpl
      0002FC 90r00r43         [24] 1793 	mov	dptr,#_closeChannel_channel_65536_185
      0002FF F0               [24] 1794 	movx	@dptr,a
                                   1795 ;	/home/mr-a-717/.stc/uni-stc/hal/advpwm-hal.c:270: switch (channel) {
      000300 E0               [24] 1796 	movx	a,@dptr
      000301 FF               [12] 1797 	mov  r7,a
      000302 24 F1            [12] 1798 	add	a,#0xff - 0x0e
      000304 50 01            [24] 1799 	jnc	00116$
      000306 22               [24] 1800 	ret
      000307                       1801 00116$:
      000307 EF               [12] 1802 	mov	a,r7
      000308 24 0A            [12] 1803 	add	a,#(00117$-3-.)
      00030A 83               [24] 1804 	movc	a,@a+pc
      00030B F5 82            [12] 1805 	mov	dpl,a
      00030D EF               [12] 1806 	mov	a,r7
      00030E 24 13            [12] 1807 	add	a,#(00118$-3-.)
      000310 83               [24] 1808 	movc	a,@a+pc
      000311 F5 83            [12] 1809 	mov	dph,a
      000313 E4               [12] 1810 	clr	a
      000314 73               [24] 1811 	jmp	@a+dptr
      000315                       1812 00117$:
      000315r33                    1813 	.db	00101$
      000316r7A                    1814 	.db	00110$
      000317r3C                    1815 	.db	00102$
      000318r7A                    1816 	.db	00110$
      000319r45                    1817 	.db	00103$
      00031Ar7A                    1818 	.db	00110$
      00031Br4E                    1819 	.db	00104$
      00031Cr7A                    1820 	.db	00110$
      00031Dr57                    1821 	.db	00105$
      00031Er7A                    1822 	.db	00110$
      00031Fr60                    1823 	.db	00106$
      000320r7A                    1824 	.db	00110$
      000321r69                    1825 	.db	00107$
      000322r7A                    1826 	.db	00110$
      000323r72                    1827 	.db	00108$
      000324                       1828 00118$:
      000324s03                    1829 	.db	00101$>>8
      000325s03                    1830 	.db	00110$>>8
      000326s03                    1831 	.db	00102$>>8
      000327s03                    1832 	.db	00110$>>8
      000328s03                    1833 	.db	00103$>>8
      000329s03                    1834 	.db	00110$>>8
      00032As03                    1835 	.db	00104$>>8
      00032Bs03                    1836 	.db	00110$>>8
      00032Cs03                    1837 	.db	00105$>>8
      00032Ds03                    1838 	.db	00110$>>8
      00032Es03                    1839 	.db	00106$>>8
      00032Fs03                    1840 	.db	00110$>>8
      000330s03                    1841 	.db	00107$>>8
      000331s03                    1842 	.db	00110$>>8
      000332s03                    1843 	.db	00108$>>8
                                   1844 ;	/home/mr-a-717/.stc/uni-stc/hal/advpwm-hal.c:271: case PWM_Channel0:
      000333                       1845 00101$:
                                   1846 ;	/home/mr-a-717/.stc/uni-stc/hal/advpwm-hal.c:272: PWMA_CCER1 &= 0xf0;
      000333 90 FE CC         [24] 1847 	mov	dptr,#_PWMA_CCER1
      000336 E0               [24] 1848 	movx	a,@dptr
      000337 53 E0 F0         [24] 1849 	anl	acc,#0xf0
      00033A F0               [24] 1850 	movx	@dptr,a
                                   1851 ;	/home/mr-a-717/.stc/uni-stc/hal/advpwm-hal.c:273: break;
                                   1852 ;	/home/mr-a-717/.stc/uni-stc/hal/advpwm-hal.c:275: case PWM_Channel1:
      00033B 22               [24] 1853 	ret
      00033C                       1854 00102$:
                                   1855 ;	/home/mr-a-717/.stc/uni-stc/hal/advpwm-hal.c:276: PWMA_CCER1 &= 0x0f;
      00033C 90 FE CC         [24] 1856 	mov	dptr,#_PWMA_CCER1
      00033F E0               [24] 1857 	movx	a,@dptr
      000340 53 E0 0F         [24] 1858 	anl	acc,#0x0f
      000343 F0               [24] 1859 	movx	@dptr,a
                                   1860 ;	/home/mr-a-717/.stc/uni-stc/hal/advpwm-hal.c:277: break;
                                   1861 ;	/home/mr-a-717/.stc/uni-stc/hal/advpwm-hal.c:280: case PWM_Channel2:
      000344 22               [24] 1862 	ret
      000345                       1863 00103$:
                                   1864 ;	/home/mr-a-717/.stc/uni-stc/hal/advpwm-hal.c:281: PWMA_CCER2 &= 0xf0;
      000345 90 FE CD         [24] 1865 	mov	dptr,#_PWMA_CCER2
      000348 E0               [24] 1866 	movx	a,@dptr
      000349 53 E0 F0         [24] 1867 	anl	acc,#0xf0
      00034C F0               [24] 1868 	movx	@dptr,a
                                   1869 ;	/home/mr-a-717/.stc/uni-stc/hal/advpwm-hal.c:282: break;
                                   1870 ;	/home/mr-a-717/.stc/uni-stc/hal/advpwm-hal.c:283: case PWM_Channel3:
      00034D 22               [24] 1871 	ret
      00034E                       1872 00104$:
                                   1873 ;	/home/mr-a-717/.stc/uni-stc/hal/advpwm-hal.c:284: PWMA_CCER2 &= 0x0f;
      00034E 90 FE CD         [24] 1874 	mov	dptr,#_PWMA_CCER2
      000351 E0               [24] 1875 	movx	a,@dptr
      000352 53 E0 0F         [24] 1876 	anl	acc,#0x0f
      000355 F0               [24] 1877 	movx	@dptr,a
                                   1878 ;	/home/mr-a-717/.stc/uni-stc/hal/advpwm-hal.c:285: break;
                                   1879 ;	/home/mr-a-717/.stc/uni-stc/hal/advpwm-hal.c:288: case PWM_Channel4:
      000356 22               [24] 1880 	ret
      000357                       1881 00105$:
                                   1882 ;	/home/mr-a-717/.stc/uni-stc/hal/advpwm-hal.c:289: PWMB_CCER1 &= 0xf0;
      000357 90 FE EC         [24] 1883 	mov	dptr,#_PWMB_CCER1
      00035A E0               [24] 1884 	movx	a,@dptr
      00035B 53 E0 F0         [24] 1885 	anl	acc,#0xf0
      00035E F0               [24] 1886 	movx	@dptr,a
                                   1887 ;	/home/mr-a-717/.stc/uni-stc/hal/advpwm-hal.c:290: break;
                                   1888 ;	/home/mr-a-717/.stc/uni-stc/hal/advpwm-hal.c:291: case PWM_Channel5:
      00035F 22               [24] 1889 	ret
      000360                       1890 00106$:
                                   1891 ;	/home/mr-a-717/.stc/uni-stc/hal/advpwm-hal.c:292: PWMB_CCER1 &= 0x0f;
      000360 90 FE EC         [24] 1892 	mov	dptr,#_PWMB_CCER1
      000363 E0               [24] 1893 	movx	a,@dptr
      000364 53 E0 0F         [24] 1894 	anl	acc,#0x0f
      000367 F0               [24] 1895 	movx	@dptr,a
                                   1896 ;	/home/mr-a-717/.stc/uni-stc/hal/advpwm-hal.c:293: break;
                                   1897 ;	/home/mr-a-717/.stc/uni-stc/hal/advpwm-hal.c:294: case PWM_Channel6:
      000368 22               [24] 1898 	ret
      000369                       1899 00107$:
                                   1900 ;	/home/mr-a-717/.stc/uni-stc/hal/advpwm-hal.c:295: PWMB_CCER2 &= 0xf0;
      000369 90 FE ED         [24] 1901 	mov	dptr,#_PWMB_CCER2
      00036C E0               [24] 1902 	movx	a,@dptr
      00036D 53 E0 F0         [24] 1903 	anl	acc,#0xf0
      000370 F0               [24] 1904 	movx	@dptr,a
                                   1905 ;	/home/mr-a-717/.stc/uni-stc/hal/advpwm-hal.c:296: break;
                                   1906 ;	/home/mr-a-717/.stc/uni-stc/hal/advpwm-hal.c:297: case PWM_Channel7:
      000371 22               [24] 1907 	ret
      000372                       1908 00108$:
                                   1909 ;	/home/mr-a-717/.stc/uni-stc/hal/advpwm-hal.c:298: PWMB_CCER2 &= 0x0f;
      000372 90 FE ED         [24] 1910 	mov	dptr,#_PWMB_CCER2
      000375 E0               [24] 1911 	movx	a,@dptr
      000376 53 E0 0F         [24] 1912 	anl	acc,#0x0f
      000379 F0               [24] 1913 	movx	@dptr,a
                                   1914 ;	/home/mr-a-717/.stc/uni-stc/hal/advpwm-hal.c:301: }
      00037A                       1915 00110$:
                                   1916 ;	/home/mr-a-717/.stc/uni-stc/hal/advpwm-hal.c:302: }
      00037A 22               [24] 1917 	ret
                                   1918 ;------------------------------------------------------------
                                   1919 ;Allocation info for local variables in function 'pwmConfigureOutput'
                                   1920 ;------------------------------------------------------------
                                   1921 ;pinSwitch                 Allocated with name '_pwmConfigureOutput_PARM_2'
                                   1922 ;pinMode                   Allocated with name '_pwmConfigureOutput_PARM_3'
                                   1923 ;polarity                  Allocated with name '_pwmConfigureOutput_PARM_4'
                                   1924 ;faultControl              Allocated with name '_pwmConfigureOutput_PARM_5'
                                   1925 ;idleLevel                 Allocated with name '_pwmConfigureOutput_PARM_6'
                                   1926 ;outputEnable              Allocated with name '_pwmConfigureOutput_PARM_7'
                                   1927 ;channel                   Allocated with name '_pwmConfigureOutput_channel_65536_188'
                                   1928 ;ok                        Allocated with name '_pwmConfigureOutput_ok_65537_191'
                                   1929 ;------------------------------------------------------------
                                   1930 ;	/home/mr-a-717/.stc/uni-stc/hal/advpwm-hal.c:304: void pwmConfigureOutput(
                                   1931 ;	-----------------------------------------
                                   1932 ;	 function pwmConfigureOutput
                                   1933 ;	-----------------------------------------
      00037B                       1934 _pwmConfigureOutput:
      00037B E5 82            [12] 1935 	mov	a,dpl
      00037D 90r00r4A         [24] 1936 	mov	dptr,#_pwmConfigureOutput_channel_65536_188
      000380 F0               [24] 1937 	movx	@dptr,a
                                   1938 ;	/home/mr-a-717/.stc/uni-stc/hal/advpwm-hal.c:313: if (pinMode == GPIO_HIGH_IMPEDANCE_MODE) {
      000381 90r00r45         [24] 1939 	mov	dptr,#_pwmConfigureOutput_PARM_3
      000384 E0               [24] 1940 	movx	a,@dptr
      000385 FF               [12] 1941 	mov	r7,a
      000386 BF 02 06         [24] 1942 	cjne	r7,#0x02,00102$
                                   1943 ;	/home/mr-a-717/.stc/uni-stc/hal/advpwm-hal.c:314: pinMode = GPIO_PUSH_PULL_MODE;
      000389 90r00r45         [24] 1944 	mov	dptr,#_pwmConfigureOutput_PARM_3
      00038C 74 01            [12] 1945 	mov	a,#0x01
      00038E F0               [24] 1946 	movx	@dptr,a
      00038F                       1947 00102$:
                                   1948 ;	/home/mr-a-717/.stc/uni-stc/hal/advpwm-hal.c:317: bool ok = false;
      00038F 90r00r4B         [24] 1949 	mov	dptr,#_pwmConfigureOutput_ok_65537_191
      000392 E4               [12] 1950 	clr	a
      000393 F0               [24] 1951 	movx	@dptr,a
                                   1952 ;	/home/mr-a-717/.stc/uni-stc/hal/advpwm-hal.c:319: if (channel > PWM_Channel3 || (outputEnable & PWM_OUTPUT_P_ONLY)) {
      000394 90r00r4A         [24] 1953 	mov	dptr,#_pwmConfigureOutput_channel_65536_188
      000397 E0               [24] 1954 	movx	a,@dptr
      000398 FF               [12] 1955 	mov  r7,a
      000399 24 F9            [12] 1956 	add	a,#0xff - 0x06
      00039B 40 07            [24] 1957 	jc	00105$
      00039D 90r00r49         [24] 1958 	mov	dptr,#_pwmConfigureOutput_PARM_7
      0003A0 E0               [24] 1959 	movx	a,@dptr
      0003A1 30 E0 78         [24] 1960 	jnb	acc.0,00106$
      0003A4                       1961 00105$:
                                   1962 ;	/home/mr-a-717/.stc/uni-stc/hal/advpwm-hal.c:320: if (configurePin(getChannelPin(channel, pinSwitch, 0), pinMode)) {
      0003A4 90r00r4A         [24] 1963 	mov	dptr,#_pwmConfigureOutput_channel_65536_188
      0003A7 E0               [24] 1964 	movx	a,@dptr
      0003A8 FF               [12] 1965 	mov	r7,a
      0003A9 90r00r44         [24] 1966 	mov	dptr,#_pwmConfigureOutput_PARM_2
      0003AC E0               [24] 1967 	movx	a,@dptr
      0003AD 90r00r21         [24] 1968 	mov	dptr,#_getChannelPin_PARM_2
      0003B0 F0               [24] 1969 	movx	@dptr,a
      0003B1 90r00r22         [24] 1970 	mov	dptr,#_getChannelPin_PARM_3
      0003B4 E4               [12] 1971 	clr	a
      0003B5 F0               [24] 1972 	movx	@dptr,a
      0003B6 8F 82            [24] 1973 	mov	dpl,r7
      0003B8 C0 07            [24] 1974 	push	ar7
      0003BA 12r00r00         [24] 1975 	lcall	_getChannelPin
      0003BD AE 82            [24] 1976 	mov	r6,dpl
      0003BF 90r00r45         [24] 1977 	mov	dptr,#_pwmConfigureOutput_PARM_3
      0003C2 E0               [24] 1978 	movx	a,@dptr
      0003C3 90r00r25         [24] 1979 	mov	dptr,#_configurePin_PARM_2
      0003C6 F0               [24] 1980 	movx	@dptr,a
      0003C7 8E 82            [24] 1981 	mov	dpl,r6
      0003C9 12r00r78         [24] 1982 	lcall	_configurePin
      0003CC E5 82            [12] 1983 	mov	a,dpl
      0003CE D0 07            [24] 1984 	pop	ar7
      0003D0 60 4A            [24] 1985 	jz	00106$
                                   1986 ;	/home/mr-a-717/.stc/uni-stc/hal/advpwm-hal.c:321: enableOutput(channel, 0);
      0003D2 90r00r37         [24] 1987 	mov	dptr,#_enableOutput_PARM_2
      0003D5 E4               [12] 1988 	clr	a
      0003D6 F0               [24] 1989 	movx	@dptr,a
      0003D7 8F 82            [24] 1990 	mov	dpl,r7
      0003D9 C0 07            [24] 1991 	push	ar7
      0003DB 12r01r70         [24] 1992 	lcall	_enableOutput
      0003DE D0 07            [24] 1993 	pop	ar7
                                   1994 ;	/home/mr-a-717/.stc/uni-stc/hal/advpwm-hal.c:322: enableChannel(channel, 0, polarity);
      0003E0 90r00r46         [24] 1995 	mov	dptr,#_pwmConfigureOutput_PARM_4
      0003E3 E0               [24] 1996 	movx	a,@dptr
      0003E4 FE               [12] 1997 	mov	r6,a
      0003E5 90r00r39         [24] 1998 	mov	dptr,#_enableChannel_PARM_2
      0003E8 E4               [12] 1999 	clr	a
      0003E9 F0               [24] 2000 	movx	@dptr,a
      0003EA 90r00r3A         [24] 2001 	mov	dptr,#_enableChannel_PARM_3
      0003ED EE               [12] 2002 	mov	a,r6
      0003EE F0               [24] 2003 	movx	@dptr,a
      0003EF 8F 82            [24] 2004 	mov	dpl,r7
      0003F1 C0 07            [24] 2005 	push	ar7
      0003F3 12r01rB0         [24] 2006 	lcall	_enableChannel
      0003F6 D0 07            [24] 2007 	pop	ar7
                                   2008 ;	/home/mr-a-717/.stc/uni-stc/hal/advpwm-hal.c:323: enableFaultControl(channel, 0, faultControl, idleLevel);
      0003F8 90r00r47         [24] 2009 	mov	dptr,#_pwmConfigureOutput_PARM_5
      0003FB E0               [24] 2010 	movx	a,@dptr
      0003FC FE               [12] 2011 	mov	r6,a
      0003FD 90r00r48         [24] 2012 	mov	dptr,#_pwmConfigureOutput_PARM_6
      000400 E0               [24] 2013 	movx	a,@dptr
      000401 FD               [12] 2014 	mov	r5,a
      000402 90r00r3F         [24] 2015 	mov	dptr,#_enableFaultControl_PARM_2
      000405 E4               [12] 2016 	clr	a
      000406 F0               [24] 2017 	movx	@dptr,a
      000407 90r00r40         [24] 2018 	mov	dptr,#_enableFaultControl_PARM_3
      00040A EE               [12] 2019 	mov	a,r6
      00040B F0               [24] 2020 	movx	@dptr,a
      00040C 90r00r41         [24] 2021 	mov	dptr,#_enableFaultControl_PARM_4
      00040F ED               [12] 2022 	mov	a,r5
      000410 F0               [24] 2023 	movx	@dptr,a
      000411 8F 82            [24] 2024 	mov	dpl,r7
      000413 12r02r7D         [24] 2025 	lcall	_enableFaultControl
                                   2026 ;	/home/mr-a-717/.stc/uni-stc/hal/advpwm-hal.c:324: ok = true;
      000416 90r00r4B         [24] 2027 	mov	dptr,#_pwmConfigureOutput_ok_65537_191
      000419 74 01            [12] 2028 	mov	a,#0x01
      00041B F0               [24] 2029 	movx	@dptr,a
      00041C                       2030 00106$:
                                   2031 ;	/home/mr-a-717/.stc/uni-stc/hal/advpwm-hal.c:328: if (channel <= PWM_Channel3 && (outputEnable & PWM_OUTPUT_N_ONLY)) {
      00041C 90r00r4A         [24] 2032 	mov	dptr,#_pwmConfigureOutput_channel_65536_188
      00041F E0               [24] 2033 	movx	a,@dptr
      000420 FF               [12] 2034 	mov  r7,a
      000421 24 F9            [12] 2035 	add	a,#0xff - 0x06
      000423 50 03            [24] 2036 	jnc	00150$
      000425 02r04rA6         [24] 2037 	ljmp	00111$
      000428                       2038 00150$:
      000428 90r00r49         [24] 2039 	mov	dptr,#_pwmConfigureOutput_PARM_7
      00042B E0               [24] 2040 	movx	a,@dptr
      00042C 30 E1 77         [24] 2041 	jnb	acc.1,00111$
                                   2042 ;	/home/mr-a-717/.stc/uni-stc/hal/advpwm-hal.c:329: if (configurePin(getChannelPin(channel, pinSwitch, 1), pinMode)) {
      00042F 90r00r44         [24] 2043 	mov	dptr,#_pwmConfigureOutput_PARM_2
      000432 E0               [24] 2044 	movx	a,@dptr
      000433 90r00r21         [24] 2045 	mov	dptr,#_getChannelPin_PARM_2
      000436 F0               [24] 2046 	movx	@dptr,a
      000437 90r00r22         [24] 2047 	mov	dptr,#_getChannelPin_PARM_3
      00043A 74 01            [12] 2048 	mov	a,#0x01
      00043C F0               [24] 2049 	movx	@dptr,a
      00043D 8F 82            [24] 2050 	mov	dpl,r7
      00043F C0 07            [24] 2051 	push	ar7
      000441 12r00r00         [24] 2052 	lcall	_getChannelPin
      000444 AE 82            [24] 2053 	mov	r6,dpl
      000446 90r00r45         [24] 2054 	mov	dptr,#_pwmConfigureOutput_PARM_3
      000449 E0               [24] 2055 	movx	a,@dptr
      00044A 90r00r25         [24] 2056 	mov	dptr,#_configurePin_PARM_2
      00044D F0               [24] 2057 	movx	@dptr,a
      00044E 8E 82            [24] 2058 	mov	dpl,r6
      000450 12r00r78         [24] 2059 	lcall	_configurePin
      000453 E5 82            [12] 2060 	mov	a,dpl
      000455 D0 07            [24] 2061 	pop	ar7
      000457 60 4D            [24] 2062 	jz	00111$
                                   2063 ;	/home/mr-a-717/.stc/uni-stc/hal/advpwm-hal.c:330: enableOutput(channel, 1);
      000459 90r00r37         [24] 2064 	mov	dptr,#_enableOutput_PARM_2
      00045C 74 01            [12] 2065 	mov	a,#0x01
      00045E F0               [24] 2066 	movx	@dptr,a
      00045F 8F 82            [24] 2067 	mov	dpl,r7
      000461 C0 07            [24] 2068 	push	ar7
      000463 12r01r70         [24] 2069 	lcall	_enableOutput
      000466 D0 07            [24] 2070 	pop	ar7
                                   2071 ;	/home/mr-a-717/.stc/uni-stc/hal/advpwm-hal.c:331: enableChannel(channel, 1, polarity);
      000468 90r00r46         [24] 2072 	mov	dptr,#_pwmConfigureOutput_PARM_4
      00046B E0               [24] 2073 	movx	a,@dptr
      00046C FE               [12] 2074 	mov	r6,a
      00046D 90r00r39         [24] 2075 	mov	dptr,#_enableChannel_PARM_2
      000470 74 01            [12] 2076 	mov	a,#0x01
      000472 F0               [24] 2077 	movx	@dptr,a
      000473 90r00r3A         [24] 2078 	mov	dptr,#_enableChannel_PARM_3
      000476 EE               [12] 2079 	mov	a,r6
      000477 F0               [24] 2080 	movx	@dptr,a
      000478 8F 82            [24] 2081 	mov	dpl,r7
      00047A C0 07            [24] 2082 	push	ar7
      00047C 12r01rB0         [24] 2083 	lcall	_enableChannel
      00047F D0 07            [24] 2084 	pop	ar7
                                   2085 ;	/home/mr-a-717/.stc/uni-stc/hal/advpwm-hal.c:332: enableFaultControl(channel, 1, faultControl, idleLevel);
      000481 90r00r47         [24] 2086 	mov	dptr,#_pwmConfigureOutput_PARM_5
      000484 E0               [24] 2087 	movx	a,@dptr
      000485 FE               [12] 2088 	mov	r6,a
      000486 90r00r48         [24] 2089 	mov	dptr,#_pwmConfigureOutput_PARM_6
      000489 E0               [24] 2090 	movx	a,@dptr
      00048A FD               [12] 2091 	mov	r5,a
      00048B 90r00r3F         [24] 2092 	mov	dptr,#_enableFaultControl_PARM_2
      00048E 74 01            [12] 2093 	mov	a,#0x01
      000490 F0               [24] 2094 	movx	@dptr,a
      000491 90r00r40         [24] 2095 	mov	dptr,#_enableFaultControl_PARM_3
      000494 EE               [12] 2096 	mov	a,r6
      000495 F0               [24] 2097 	movx	@dptr,a
      000496 90r00r41         [24] 2098 	mov	dptr,#_enableFaultControl_PARM_4
      000499 ED               [12] 2099 	mov	a,r5
      00049A F0               [24] 2100 	movx	@dptr,a
      00049B 8F 82            [24] 2101 	mov	dpl,r7
      00049D 12r02r7D         [24] 2102 	lcall	_enableFaultControl
                                   2103 ;	/home/mr-a-717/.stc/uni-stc/hal/advpwm-hal.c:333: ok = true;
      0004A0 90r00r4B         [24] 2104 	mov	dptr,#_pwmConfigureOutput_ok_65537_191
      0004A3 74 01            [12] 2105 	mov	a,#0x01
      0004A5 F0               [24] 2106 	movx	@dptr,a
      0004A6                       2107 00111$:
                                   2108 ;	/home/mr-a-717/.stc/uni-stc/hal/advpwm-hal.c:337: if (ok) {
      0004A6 90r00r4B         [24] 2109 	mov	dptr,#_pwmConfigureOutput_ok_65537_191
      0004A9 E0               [24] 2110 	movx	a,@dptr
      0004AA 60 12            [24] 2111 	jz	00115$
                                   2112 ;	/home/mr-a-717/.stc/uni-stc/hal/advpwm-hal.c:338: applyPinSwitch(channel, pinSwitch);
      0004AC 90r00r4A         [24] 2113 	mov	dptr,#_pwmConfigureOutput_channel_65536_188
      0004AF E0               [24] 2114 	movx	a,@dptr
      0004B0 FF               [12] 2115 	mov	r7,a
      0004B1 90r00r44         [24] 2116 	mov	dptr,#_pwmConfigureOutput_PARM_2
      0004B4 E0               [24] 2117 	movx	a,@dptr
      0004B5 90r00r35         [24] 2118 	mov	dptr,#_applyPinSwitch_PARM_2
      0004B8 F0               [24] 2119 	movx	@dptr,a
      0004B9 8F 82            [24] 2120 	mov	dpl,r7
                                   2121 ;	/home/mr-a-717/.stc/uni-stc/hal/advpwm-hal.c:340: }
      0004BB 02r00rF1         [24] 2122 	ljmp	_applyPinSwitch
      0004BE                       2123 00115$:
      0004BE 22               [24] 2124 	ret
                                   2125 ;------------------------------------------------------------
                                   2126 ;Allocation info for local variables in function 'pwmConfigureCounter'
                                   2127 ;------------------------------------------------------------
                                   2128 ;counterFreq               Allocated with name '_pwmConfigureCounter_PARM_2'
                                   2129 ;signalFreq                Allocated with name '_pwmConfigureCounter_PARM_3'
                                   2130 ;mode                      Allocated with name '_pwmConfigureCounter_PARM_4'
                                   2131 ;trigger                   Allocated with name '_pwmConfigureCounter_PARM_5'
                                   2132 ;repeatCount               Allocated with name '_pwmConfigureCounter_PARM_6'
                                   2133 ;registerUpdateMode        Allocated with name '_pwmConfigureCounter_PARM_7'
                                   2134 ;counterRunMode            Allocated with name '_pwmConfigureCounter_PARM_8'
                                   2135 ;counterDirection          Allocated with name '_pwmConfigureCounter_PARM_9'
                                   2136 ;updateEventEnable         Allocated with name '_pwmConfigureCounter_PARM_10'
                                   2137 ;comInterrupt              Allocated with name '_pwmConfigureCounter_PARM_11'
                                   2138 ;counter                   Allocated with name '_pwmConfigureCounter_counter_65536_197'
                                   2139 ;prescaler                 Allocated with name '_pwmConfigureCounter_prescaler_65536_198'
                                   2140 ;reloadValue               Allocated with name '_pwmConfigureCounter_reloadValue_65536_198'
                                   2141 ;slaveMode                 Allocated with name '_pwmConfigureCounter_slaveMode_65537_204'
                                   2142 ;cr1                       Allocated with name '_pwmConfigureCounter_cr1_65537_204'
                                   2143 ;ier                       Allocated with name '_pwmConfigureCounter_ier_65537_204'
                                   2144 ;------------------------------------------------------------
                                   2145 ;	/home/mr-a-717/.stc/uni-stc/hal/advpwm-hal.c:393: uint16_t pwmConfigureCounter(
                                   2146 ;	-----------------------------------------
                                   2147 ;	 function pwmConfigureCounter
                                   2148 ;	-----------------------------------------
      0004BF                       2149 _pwmConfigureCounter:
      0004BF E5 82            [12] 2150 	mov	a,dpl
      0004C1 90r00r5C         [24] 2151 	mov	dptr,#_pwmConfigureCounter_counter_65536_197
      0004C4 F0               [24] 2152 	movx	@dptr,a
                                   2153 ;	/home/mr-a-717/.stc/uni-stc/hal/advpwm-hal.c:406: uint16_t prescaler = 0;
      0004C5 90r00r5D         [24] 2154 	mov	dptr,#_pwmConfigureCounter_prescaler_65536_198
      0004C8 E4               [12] 2155 	clr	a
      0004C9 F0               [24] 2156 	movx	@dptr,a
      0004CA A3               [24] 2157 	inc	dptr
      0004CB F0               [24] 2158 	movx	@dptr,a
                                   2159 ;	/home/mr-a-717/.stc/uni-stc/hal/advpwm-hal.c:409: switch (mode) {
      0004CC 90r00r54         [24] 2160 	mov	dptr,#_pwmConfigureCounter_PARM_4
      0004CF E0               [24] 2161 	movx	a,@dptr
      0004D0 FF               [12] 2162 	mov	r7,a
      0004D1 BF 01 03         [24] 2163 	cjne	r7,#0x01,00190$
      0004D4 EF               [12] 2164 	mov	a,r7
      0004D5 80 01            [24] 2165 	sjmp	00191$
      0004D7                       2166 00190$:
      0004D7 E4               [12] 2167 	clr	a
      0004D8                       2168 00191$:
      0004D8 FE               [12] 2169 	mov	r6,a
      0004D9 70 63            [24] 2170 	jnz	00106$
      0004DB BF 02 02         [24] 2171 	cjne	r7,#0x02,00193$
      0004DE 80 5E            [24] 2172 	sjmp	00106$
      0004E0                       2173 00193$:
      0004E0 BF 03 02         [24] 2174 	cjne	r7,#0x03,00194$
      0004E3 80 59            [24] 2175 	sjmp	00106$
      0004E5                       2176 00194$:
      0004E5 BF 07 18         [24] 2177 	cjne	r7,#0x07,00105$
                                   2178 ;	/home/mr-a-717/.stc/uni-stc/hal/advpwm-hal.c:416: prescaler = counterFreq;
      0004E8 90r00r4C         [24] 2179 	mov	dptr,#_pwmConfigureCounter_PARM_2
      0004EB E0               [24] 2180 	movx	a,@dptr
      0004EC FA               [12] 2181 	mov	r2,a
      0004ED A3               [24] 2182 	inc	dptr
      0004EE E0               [24] 2183 	movx	a,@dptr
      0004EF FB               [12] 2184 	mov	r3,a
      0004F0 A3               [24] 2185 	inc	dptr
      0004F1 E0               [24] 2186 	movx	a,@dptr
      0004F2 FC               [12] 2187 	mov	r4,a
      0004F3 A3               [24] 2188 	inc	dptr
      0004F4 E0               [24] 2189 	movx	a,@dptr
      0004F5 FD               [12] 2190 	mov	r5,a
      0004F6 90r00r5D         [24] 2191 	mov	dptr,#_pwmConfigureCounter_prescaler_65536_198
      0004F9 EA               [12] 2192 	mov	a,r2
      0004FA F0               [24] 2193 	movx	@dptr,a
      0004FB EB               [12] 2194 	mov	a,r3
      0004FC A3               [24] 2195 	inc	dptr
      0004FD F0               [24] 2196 	movx	@dptr,a
                                   2197 ;	/home/mr-a-717/.stc/uni-stc/hal/advpwm-hal.c:417: break;
                                   2198 ;	/home/mr-a-717/.stc/uni-stc/hal/advpwm-hal.c:419: default:
      0004FE 80 3E            [24] 2199 	sjmp	00106$
      000500                       2200 00105$:
                                   2201 ;	/home/mr-a-717/.stc/uni-stc/hal/advpwm-hal.c:420: prescaler = MCU_FREQ / counterFreq;
      000500 90r00r4C         [24] 2202 	mov	dptr,#_pwmConfigureCounter_PARM_2
      000503 E0               [24] 2203 	movx	a,@dptr
      000504 FA               [12] 2204 	mov	r2,a
      000505 A3               [24] 2205 	inc	dptr
      000506 E0               [24] 2206 	movx	a,@dptr
      000507 FB               [12] 2207 	mov	r3,a
      000508 A3               [24] 2208 	inc	dptr
      000509 E0               [24] 2209 	movx	a,@dptr
      00050A FC               [12] 2210 	mov	r4,a
      00050B A3               [24] 2211 	inc	dptr
      00050C E0               [24] 2212 	movx	a,@dptr
      00050D FD               [12] 2213 	mov	r5,a
      00050E 90r00r00         [24] 2214 	mov	dptr,#__divulong_PARM_2
      000511 EA               [12] 2215 	mov	a,r2
      000512 F0               [24] 2216 	movx	@dptr,a
      000513 EB               [12] 2217 	mov	a,r3
      000514 A3               [24] 2218 	inc	dptr
      000515 F0               [24] 2219 	movx	@dptr,a
      000516 EC               [12] 2220 	mov	a,r4
      000517 A3               [24] 2221 	inc	dptr
      000518 F0               [24] 2222 	movx	@dptr,a
      000519 ED               [12] 2223 	mov	a,r5
      00051A A3               [24] 2224 	inc	dptr
      00051B F0               [24] 2225 	movx	@dptr,a
      00051C 90 0E C0         [24] 2226 	mov	dptr,#0x0ec0
      00051F 75 F0 16         [24] 2227 	mov	b,#0x16
      000522 74 02            [12] 2228 	mov	a,#0x02
      000524 C0 07            [24] 2229 	push	ar7
      000526 C0 06            [24] 2230 	push	ar6
      000528 12r00r00         [24] 2231 	lcall	__divulong
      00052B AA 82            [24] 2232 	mov	r2,dpl
      00052D AB 83            [24] 2233 	mov	r3,dph
      00052F AC F0            [24] 2234 	mov	r4,b
      000531 FD               [12] 2235 	mov	r5,a
      000532 D0 06            [24] 2236 	pop	ar6
      000534 D0 07            [24] 2237 	pop	ar7
      000536 90r00r5D         [24] 2238 	mov	dptr,#_pwmConfigureCounter_prescaler_65536_198
      000539 EA               [12] 2239 	mov	a,r2
      00053A F0               [24] 2240 	movx	@dptr,a
      00053B EB               [12] 2241 	mov	a,r3
      00053C A3               [24] 2242 	inc	dptr
      00053D F0               [24] 2243 	movx	@dptr,a
                                   2244 ;	/home/mr-a-717/.stc/uni-stc/hal/advpwm-hal.c:422: }
      00053E                       2245 00106$:
                                   2246 ;	/home/mr-a-717/.stc/uni-stc/hal/advpwm-hal.c:424: if (prescaler) {
      00053E 90r00r5D         [24] 2247 	mov	dptr,#_pwmConfigureCounter_prescaler_65536_198
      000541 E0               [24] 2248 	movx	a,@dptr
      000542 FC               [12] 2249 	mov	r4,a
      000543 A3               [24] 2250 	inc	dptr
      000544 E0               [24] 2251 	movx	a,@dptr
      000545 FD               [12] 2252 	mov	r5,a
      000546 90r00r5D         [24] 2253 	mov	dptr,#_pwmConfigureCounter_prescaler_65536_198
      000549 E0               [24] 2254 	movx	a,@dptr
      00054A F5 F0            [12] 2255 	mov	b,a
      00054C A3               [24] 2256 	inc	dptr
      00054D E0               [24] 2257 	movx	a,@dptr
      00054E 45 F0            [12] 2258 	orl	a,b
      000550 60 0D            [24] 2259 	jz	00108$
                                   2260 ;	/home/mr-a-717/.stc/uni-stc/hal/advpwm-hal.c:425: prescaler -= 1;
      000552 1C               [12] 2261 	dec	r4
      000553 BC FF 01         [24] 2262 	cjne	r4,#0xff,00198$
      000556 1D               [12] 2263 	dec	r5
      000557                       2264 00198$:
      000557 90r00r5D         [24] 2265 	mov	dptr,#_pwmConfigureCounter_prescaler_65536_198
      00055A EC               [12] 2266 	mov	a,r4
      00055B F0               [24] 2267 	movx	@dptr,a
      00055C ED               [12] 2268 	mov	a,r5
      00055D A3               [24] 2269 	inc	dptr
      00055E F0               [24] 2270 	movx	@dptr,a
      00055F                       2271 00108$:
                                   2272 ;	/home/mr-a-717/.stc/uni-stc/hal/advpwm-hal.c:428: switch (mode) {
      00055F EE               [12] 2273 	mov	a,r6
      000560 70 0D            [24] 2274 	jnz	00112$
      000562 BF 02 02         [24] 2275 	cjne	r7,#0x02,00200$
      000565 80 08            [24] 2276 	sjmp	00112$
      000567                       2277 00200$:
      000567 BF 03 02         [24] 2278 	cjne	r7,#0x03,00201$
      00056A 80 03            [24] 2279 	sjmp	00112$
      00056C                       2280 00201$:
      00056C BF 07 18         [24] 2281 	cjne	r7,#0x07,00113$
                                   2282 ;	/home/mr-a-717/.stc/uni-stc/hal/advpwm-hal.c:432: case PWM_EXTERNAL_CLOCK:
      00056F                       2283 00112$:
                                   2284 ;	/home/mr-a-717/.stc/uni-stc/hal/advpwm-hal.c:433: reloadValue = signalFreq;
      00056F 90r00r50         [24] 2285 	mov	dptr,#_pwmConfigureCounter_PARM_3
      000572 E0               [24] 2286 	movx	a,@dptr
      000573 FB               [12] 2287 	mov	r3,a
      000574 A3               [24] 2288 	inc	dptr
      000575 E0               [24] 2289 	movx	a,@dptr
      000576 FC               [12] 2290 	mov	r4,a
      000577 A3               [24] 2291 	inc	dptr
      000578 E0               [24] 2292 	movx	a,@dptr
      000579 FD               [12] 2293 	mov	r5,a
      00057A A3               [24] 2294 	inc	dptr
      00057B E0               [24] 2295 	movx	a,@dptr
      00057C FE               [12] 2296 	mov	r6,a
      00057D 90r00r5F         [24] 2297 	mov	dptr,#_pwmConfigureCounter_reloadValue_65536_198
      000580 EB               [12] 2298 	mov	a,r3
      000581 F0               [24] 2299 	movx	@dptr,a
      000582 EC               [12] 2300 	mov	a,r4
      000583 A3               [24] 2301 	inc	dptr
      000584 F0               [24] 2302 	movx	@dptr,a
                                   2303 ;	/home/mr-a-717/.stc/uni-stc/hal/advpwm-hal.c:434: break;
                                   2304 ;	/home/mr-a-717/.stc/uni-stc/hal/advpwm-hal.c:436: default:
      000585 80 46            [24] 2305 	sjmp	00114$
      000587                       2306 00113$:
                                   2307 ;	/home/mr-a-717/.stc/uni-stc/hal/advpwm-hal.c:437: reloadValue = counterFreq / signalFreq;
      000587 C0 07            [24] 2308 	push	ar7
      000589 90r00r50         [24] 2309 	mov	dptr,#_pwmConfigureCounter_PARM_3
      00058C E0               [24] 2310 	movx	a,@dptr
      00058D FB               [12] 2311 	mov	r3,a
      00058E A3               [24] 2312 	inc	dptr
      00058F E0               [24] 2313 	movx	a,@dptr
      000590 FC               [12] 2314 	mov	r4,a
      000591 A3               [24] 2315 	inc	dptr
      000592 E0               [24] 2316 	movx	a,@dptr
      000593 FD               [12] 2317 	mov	r5,a
      000594 A3               [24] 2318 	inc	dptr
      000595 E0               [24] 2319 	movx	a,@dptr
      000596 FE               [12] 2320 	mov	r6,a
      000597 90r00r4C         [24] 2321 	mov	dptr,#_pwmConfigureCounter_PARM_2
      00059A E0               [24] 2322 	movx	a,@dptr
      00059B F8               [12] 2323 	mov	r0,a
      00059C A3               [24] 2324 	inc	dptr
      00059D E0               [24] 2325 	movx	a,@dptr
      00059E F9               [12] 2326 	mov	r1,a
      00059F A3               [24] 2327 	inc	dptr
      0005A0 E0               [24] 2328 	movx	a,@dptr
      0005A1 FA               [12] 2329 	mov	r2,a
      0005A2 A3               [24] 2330 	inc	dptr
      0005A3 E0               [24] 2331 	movx	a,@dptr
      0005A4 FF               [12] 2332 	mov	r7,a
      0005A5 90r00r00         [24] 2333 	mov	dptr,#__divulong_PARM_2
      0005A8 EB               [12] 2334 	mov	a,r3
      0005A9 F0               [24] 2335 	movx	@dptr,a
      0005AA EC               [12] 2336 	mov	a,r4
      0005AB A3               [24] 2337 	inc	dptr
      0005AC F0               [24] 2338 	movx	@dptr,a
      0005AD ED               [12] 2339 	mov	a,r5
      0005AE A3               [24] 2340 	inc	dptr
      0005AF F0               [24] 2341 	movx	@dptr,a
      0005B0 EE               [12] 2342 	mov	a,r6
      0005B1 A3               [24] 2343 	inc	dptr
      0005B2 F0               [24] 2344 	movx	@dptr,a
      0005B3 88 82            [24] 2345 	mov	dpl,r0
      0005B5 89 83            [24] 2346 	mov	dph,r1
      0005B7 8A F0            [24] 2347 	mov	b,r2
      0005B9 EF               [12] 2348 	mov	a,r7
      0005BA 12r00r00         [24] 2349 	lcall	__divulong
      0005BD AC 82            [24] 2350 	mov	r4,dpl
      0005BF AD 83            [24] 2351 	mov	r5,dph
      0005C1 AE F0            [24] 2352 	mov	r6,b
      0005C3 90r00r5F         [24] 2353 	mov	dptr,#_pwmConfigureCounter_reloadValue_65536_198
      0005C6 EC               [12] 2354 	mov	a,r4
      0005C7 F0               [24] 2355 	movx	@dptr,a
      0005C8 ED               [12] 2356 	mov	a,r5
      0005C9 A3               [24] 2357 	inc	dptr
      0005CA F0               [24] 2358 	movx	@dptr,a
                                   2359 ;	/home/mr-a-717/.stc/uni-stc/hal/advpwm-hal.c:492: return reloadValue + 1;
      0005CB D0 07            [24] 2360 	pop	ar7
                                   2361 ;	/home/mr-a-717/.stc/uni-stc/hal/advpwm-hal.c:439: }
      0005CD                       2362 00114$:
                                   2363 ;	/home/mr-a-717/.stc/uni-stc/hal/advpwm-hal.c:441: switch (counterDirection) {
      0005CD 90r00r59         [24] 2364 	mov	dptr,#_pwmConfigureCounter_PARM_9
      0005D0 E0               [24] 2365 	movx	a,@dptr
      0005D1 FE               [12] 2366 	mov	r6,a
      0005D2 BE 02 02         [24] 2367 	cjne	r6,#0x02,00204$
      0005D5 80 08            [24] 2368 	sjmp	00117$
      0005D7                       2369 00204$:
      0005D7 BE 04 02         [24] 2370 	cjne	r6,#0x04,00205$
      0005DA 80 03            [24] 2371 	sjmp	00117$
      0005DC                       2372 00205$:
      0005DC BE 06 15         [24] 2373 	cjne	r6,#0x06,00118$
                                   2374 ;	/home/mr-a-717/.stc/uni-stc/hal/advpwm-hal.c:444: case PWM_CENTRE_ALIGNED_INT_UP_DOWN:
      0005DF                       2375 00117$:
                                   2376 ;	/home/mr-a-717/.stc/uni-stc/hal/advpwm-hal.c:447: reloadValue >>= 1;
      0005DF 90r00r5F         [24] 2377 	mov	dptr,#_pwmConfigureCounter_reloadValue_65536_198
      0005E2 E0               [24] 2378 	movx	a,@dptr
      0005E3 FC               [12] 2379 	mov	r4,a
      0005E4 A3               [24] 2380 	inc	dptr
      0005E5 E0               [24] 2381 	movx	a,@dptr
      0005E6 C3               [12] 2382 	clr	c
      0005E7 13               [12] 2383 	rrc	a
      0005E8 CC               [12] 2384 	xch	a,r4
      0005E9 13               [12] 2385 	rrc	a
      0005EA CC               [12] 2386 	xch	a,r4
      0005EB FD               [12] 2387 	mov	r5,a
      0005EC 90r00r5F         [24] 2388 	mov	dptr,#_pwmConfigureCounter_reloadValue_65536_198
      0005EF EC               [12] 2389 	mov	a,r4
      0005F0 F0               [24] 2390 	movx	@dptr,a
      0005F1 ED               [12] 2391 	mov	a,r5
      0005F2 A3               [24] 2392 	inc	dptr
      0005F3 F0               [24] 2393 	movx	@dptr,a
                                   2394 ;	/home/mr-a-717/.stc/uni-stc/hal/advpwm-hal.c:449: }
      0005F4                       2395 00118$:
                                   2396 ;	/home/mr-a-717/.stc/uni-stc/hal/advpwm-hal.c:451: if (reloadValue) {
      0005F4 90r00r5F         [24] 2397 	mov	dptr,#_pwmConfigureCounter_reloadValue_65536_198
      0005F7 E0               [24] 2398 	movx	a,@dptr
      0005F8 FC               [12] 2399 	mov	r4,a
      0005F9 A3               [24] 2400 	inc	dptr
      0005FA E0               [24] 2401 	movx	a,@dptr
      0005FB FD               [12] 2402 	mov	r5,a
      0005FC 90r00r5F         [24] 2403 	mov	dptr,#_pwmConfigureCounter_reloadValue_65536_198
      0005FF E0               [24] 2404 	movx	a,@dptr
      000600 F5 F0            [12] 2405 	mov	b,a
      000602 A3               [24] 2406 	inc	dptr
      000603 E0               [24] 2407 	movx	a,@dptr
      000604 45 F0            [12] 2408 	orl	a,b
      000606 60 0D            [24] 2409 	jz	00120$
                                   2410 ;	/home/mr-a-717/.stc/uni-stc/hal/advpwm-hal.c:452: reloadValue -= 1;
      000608 1C               [12] 2411 	dec	r4
      000609 BC FF 01         [24] 2412 	cjne	r4,#0xff,00209$
      00060C 1D               [12] 2413 	dec	r5
      00060D                       2414 00209$:
      00060D 90r00r5F         [24] 2415 	mov	dptr,#_pwmConfigureCounter_reloadValue_65536_198
      000610 EC               [12] 2416 	mov	a,r4
      000611 F0               [24] 2417 	movx	@dptr,a
      000612 ED               [12] 2418 	mov	a,r5
      000613 A3               [24] 2419 	inc	dptr
      000614 F0               [24] 2420 	movx	@dptr,a
      000615                       2421 00120$:
                                   2422 ;	/home/mr-a-717/.stc/uni-stc/hal/advpwm-hal.c:455: uint8_t slaveMode = mode | (trigger << 4);
      000615 90r00r55         [24] 2423 	mov	dptr,#_pwmConfigureCounter_PARM_5
      000618 E0               [24] 2424 	movx	a,@dptr
      000619 C4               [12] 2425 	swap	a
      00061A 54 F0            [12] 2426 	anl	a,#0xf0
      00061C 42 07            [12] 2427 	orl	ar7,a
                                   2428 ;	/home/mr-a-717/.stc/uni-stc/hal/advpwm-hal.c:457: uint8_t cr1 = registerUpdateMode << P_ARPE
      00061E 90r00r57         [24] 2429 	mov	dptr,#_pwmConfigureCounter_PARM_7
      000621 E0               [24] 2430 	movx	a,@dptr
      000622 03               [12] 2431 	rr	a
      000623 54 80            [12] 2432 	anl	a,#0x80
      000625 FD               [12] 2433 	mov	r5,a
      000626 90r00r58         [24] 2434 	mov	dptr,#_pwmConfigureCounter_PARM_8
      000629 E0               [24] 2435 	movx	a,@dptr
      00062A C4               [12] 2436 	swap	a
      00062B 03               [12] 2437 	rr	a
      00062C 54 F8            [12] 2438 	anl	a,#0xf8
      00062E 42 05            [12] 2439 	orl	ar5,a
      000630 EE               [12] 2440 	mov	a,r6
      000631 C4               [12] 2441 	swap	a
      000632 54 F0            [12] 2442 	anl	a,#0xf0
      000634 42 05            [12] 2443 	orl	ar5,a
      000636 90r00r5A         [24] 2444 	mov	dptr,#_pwmConfigureCounter_PARM_10
      000639 E0               [24] 2445 	movx	a,@dptr
      00063A FE               [12] 2446 	mov	r6,a
      00063B FC               [12] 2447 	mov	r4,a
      00063C EC               [12] 2448 	mov	a,r4
      00063D 2C               [12] 2449 	add	a,r4
      00063E 42 05            [12] 2450 	orl	ar5,a
                                   2451 ;	/home/mr-a-717/.stc/uni-stc/hal/advpwm-hal.c:462: uint8_t ier = (comInterrupt == ENABLE_INTERRUPT ? M_COMIE : 0)
      000640 90r00r5B         [24] 2452 	mov	dptr,#_pwmConfigureCounter_PARM_11
      000643 E0               [24] 2453 	movx	a,@dptr
      000644 FC               [12] 2454 	mov	r4,a
      000645 BC 01 06         [24] 2455 	cjne	r4,#0x01,00126$
      000648 7B 20            [12] 2456 	mov	r3,#0x20
      00064A 7C 00            [12] 2457 	mov	r4,#0x00
      00064C 80 04            [24] 2458 	sjmp	00127$
      00064E                       2459 00126$:
      00064E 7B 00            [12] 2460 	mov	r3,#0x00
      000650 7C 00            [12] 2461 	mov	r4,#0x00
      000652                       2462 00127$:
      000652 BE 01 03         [24] 2463 	cjne	r6,#0x01,00212$
      000655 EE               [12] 2464 	mov	a,r6
      000656 80 01            [24] 2465 	sjmp	00213$
      000658                       2466 00212$:
      000658 E4               [12] 2467 	clr	a
      000659                       2468 00213$:
      000659 70 05            [24] 2469 	jnz	00128$
      00065B 7A 01            [12] 2470 	mov	r2,#0x01
      00065D FE               [12] 2471 	mov	r6,a
      00065E 80 04            [24] 2472 	sjmp	00129$
      000660                       2473 00128$:
      000660 7A 00            [12] 2474 	mov	r2,#0x00
      000662 7E 00            [12] 2475 	mov	r6,#0x00
      000664                       2476 00129$:
      000664 EA               [12] 2477 	mov	a,r2
      000665 4B               [12] 2478 	orl	a,r3
      000666 FE               [12] 2479 	mov	r6,a
                                   2480 ;	/home/mr-a-717/.stc/uni-stc/hal/advpwm-hal.c:466: switch (counter) {
      000667 90r00r5C         [24] 2481 	mov	dptr,#_pwmConfigureCounter_counter_65536_197
      00066A E0               [24] 2482 	movx	a,@dptr
      00066B FC               [12] 2483 	mov	r4,a
      00066C 60 07            [24] 2484 	jz	00121$
      00066E BC 01 02         [24] 2485 	cjne	r4,#0x01,00216$
      000671 80 3F            [24] 2486 	sjmp	00122$
      000673                       2487 00216$:
                                   2488 ;	/home/mr-a-717/.stc/uni-stc/hal/advpwm-hal.c:467: case PWM_COUNTER_A:
      000673 80 78            [24] 2489 	sjmp	00123$
      000675                       2490 00121$:
                                   2491 ;	/home/mr-a-717/.stc/uni-stc/hal/advpwm-hal.c:468: PWMA_PSCRH = prescaler >> 8;
      000675 90r00r5D         [24] 2492 	mov	dptr,#_pwmConfigureCounter_prescaler_65536_198
      000678 E0               [24] 2493 	movx	a,@dptr
      000679 FB               [12] 2494 	mov	r3,a
      00067A A3               [24] 2495 	inc	dptr
      00067B E0               [24] 2496 	movx	a,@dptr
      00067C 90 FE D0         [24] 2497 	mov	dptr,#_PWMA_PSCRH
      00067F F0               [24] 2498 	movx	@dptr,a
                                   2499 ;	/home/mr-a-717/.stc/uni-stc/hal/advpwm-hal.c:469: PWMA_PSCRL = prescaler;
      000680 90 FE D1         [24] 2500 	mov	dptr,#_PWMA_PSCRL
      000683 EB               [12] 2501 	mov	a,r3
      000684 F0               [24] 2502 	movx	@dptr,a
                                   2503 ;	/home/mr-a-717/.stc/uni-stc/hal/advpwm-hal.c:470: PWMA_ARRH = reloadValue >> 8;
      000685 90r00r5F         [24] 2504 	mov	dptr,#_pwmConfigureCounter_reloadValue_65536_198
      000688 E0               [24] 2505 	movx	a,@dptr
      000689 FB               [12] 2506 	mov	r3,a
      00068A A3               [24] 2507 	inc	dptr
      00068B E0               [24] 2508 	movx	a,@dptr
      00068C FC               [12] 2509 	mov	r4,a
      00068D 90 FE D2         [24] 2510 	mov	dptr,#_PWMA_ARRH
      000690 F0               [24] 2511 	movx	@dptr,a
                                   2512 ;	/home/mr-a-717/.stc/uni-stc/hal/advpwm-hal.c:471: PWMA_ARRL = reloadValue;
      000691 90 FE D3         [24] 2513 	mov	dptr,#_PWMA_ARRL
      000694 EB               [12] 2514 	mov	a,r3
      000695 F0               [24] 2515 	movx	@dptr,a
                                   2516 ;	/home/mr-a-717/.stc/uni-stc/hal/advpwm-hal.c:472: PWMA_SMCR = slaveMode;
      000696 90 FE C2         [24] 2517 	mov	dptr,#_PWMA_SMCR
      000699 EF               [12] 2518 	mov	a,r7
      00069A F0               [24] 2519 	movx	@dptr,a
                                   2520 ;	/home/mr-a-717/.stc/uni-stc/hal/advpwm-hal.c:473: PWMA_RCR = repeatCount;
      00069B 90r00r56         [24] 2521 	mov	dptr,#_pwmConfigureCounter_PARM_6
      00069E E0               [24] 2522 	movx	a,@dptr
      00069F 90 FE D4         [24] 2523 	mov	dptr,#_PWMA_RCR
      0006A2 F0               [24] 2524 	movx	@dptr,a
                                   2525 ;	/home/mr-a-717/.stc/uni-stc/hal/advpwm-hal.c:474: PWMA_CR1 = cr1;
      0006A3 90 FE C0         [24] 2526 	mov	dptr,#_PWMA_CR1
      0006A6 ED               [12] 2527 	mov	a,r5
      0006A7 F0               [24] 2528 	movx	@dptr,a
                                   2529 ;	/home/mr-a-717/.stc/uni-stc/hal/advpwm-hal.c:475: PWMA_IER = (PWMA_IER & ~(M_COMIE | M_UIE)) | ier;
      0006A8 90 FE C4         [24] 2530 	mov	dptr,#_PWMA_IER
      0006AB E0               [24] 2531 	movx	a,@dptr
      0006AC 54 DE            [12] 2532 	anl	a,#0xde
      0006AE 4E               [12] 2533 	orl	a,r6
      0006AF F0               [24] 2534 	movx	@dptr,a
                                   2535 ;	/home/mr-a-717/.stc/uni-stc/hal/advpwm-hal.c:476: break;
                                   2536 ;	/home/mr-a-717/.stc/uni-stc/hal/advpwm-hal.c:479: case PWM_COUNTER_B:
      0006B0 80 3B            [24] 2537 	sjmp	00123$
      0006B2                       2538 00122$:
                                   2539 ;	/home/mr-a-717/.stc/uni-stc/hal/advpwm-hal.c:480: PWMB_PSCRH = prescaler >> 8;
      0006B2 90r00r5D         [24] 2540 	mov	dptr,#_pwmConfigureCounter_prescaler_65536_198
      0006B5 E0               [24] 2541 	movx	a,@dptr
      0006B6 FB               [12] 2542 	mov	r3,a
      0006B7 A3               [24] 2543 	inc	dptr
      0006B8 E0               [24] 2544 	movx	a,@dptr
      0006B9 90 FE F0         [24] 2545 	mov	dptr,#_PWMB_PSCRH
      0006BC F0               [24] 2546 	movx	@dptr,a
                                   2547 ;	/home/mr-a-717/.stc/uni-stc/hal/advpwm-hal.c:481: PWMB_PSCRL = prescaler;
      0006BD 90 FE F1         [24] 2548 	mov	dptr,#_PWMB_PSCRL
      0006C0 EB               [12] 2549 	mov	a,r3
      0006C1 F0               [24] 2550 	movx	@dptr,a
                                   2551 ;	/home/mr-a-717/.stc/uni-stc/hal/advpwm-hal.c:482: PWMB_ARRH = reloadValue >> 8;
      0006C2 90r00r5F         [24] 2552 	mov	dptr,#_pwmConfigureCounter_reloadValue_65536_198
      0006C5 E0               [24] 2553 	movx	a,@dptr
      0006C6 FB               [12] 2554 	mov	r3,a
      0006C7 A3               [24] 2555 	inc	dptr
      0006C8 E0               [24] 2556 	movx	a,@dptr
      0006C9 FC               [12] 2557 	mov	r4,a
      0006CA 90 FE F2         [24] 2558 	mov	dptr,#_PWMB_ARRH
      0006CD F0               [24] 2559 	movx	@dptr,a
                                   2560 ;	/home/mr-a-717/.stc/uni-stc/hal/advpwm-hal.c:483: PWMB_ARRL = reloadValue;
      0006CE 90 FE F3         [24] 2561 	mov	dptr,#_PWMB_ARRL
      0006D1 EB               [12] 2562 	mov	a,r3
      0006D2 F0               [24] 2563 	movx	@dptr,a
                                   2564 ;	/home/mr-a-717/.stc/uni-stc/hal/advpwm-hal.c:484: PWMB_SMCR = slaveMode;
      0006D3 90 FE E2         [24] 2565 	mov	dptr,#_PWMB_SMCR
      0006D6 EF               [12] 2566 	mov	a,r7
      0006D7 F0               [24] 2567 	movx	@dptr,a
                                   2568 ;	/home/mr-a-717/.stc/uni-stc/hal/advpwm-hal.c:485: PWMB_RCR = repeatCount;
      0006D8 90r00r56         [24] 2569 	mov	dptr,#_pwmConfigureCounter_PARM_6
      0006DB E0               [24] 2570 	movx	a,@dptr
      0006DC 90 FE F4         [24] 2571 	mov	dptr,#_PWMB_RCR
      0006DF F0               [24] 2572 	movx	@dptr,a
                                   2573 ;	/home/mr-a-717/.stc/uni-stc/hal/advpwm-hal.c:486: PWMB_CR1 = cr1;
      0006E0 90 FE E0         [24] 2574 	mov	dptr,#_PWMB_CR1
      0006E3 ED               [12] 2575 	mov	a,r5
      0006E4 F0               [24] 2576 	movx	@dptr,a
                                   2577 ;	/home/mr-a-717/.stc/uni-stc/hal/advpwm-hal.c:487: PWMB_IER = (PWMB_IER & ~(M_COMIE | M_UIE)) | ier;
      0006E5 90 FE E4         [24] 2578 	mov	dptr,#_PWMB_IER
      0006E8 E0               [24] 2579 	movx	a,@dptr
      0006E9 54 DE            [12] 2580 	anl	a,#0xde
      0006EB 4E               [12] 2581 	orl	a,r6
      0006EC F0               [24] 2582 	movx	@dptr,a
                                   2583 ;	/home/mr-a-717/.stc/uni-stc/hal/advpwm-hal.c:490: }
      0006ED                       2584 00123$:
                                   2585 ;	/home/mr-a-717/.stc/uni-stc/hal/advpwm-hal.c:492: return reloadValue + 1;
      0006ED 90r00r5F         [24] 2586 	mov	dptr,#_pwmConfigureCounter_reloadValue_65536_198
      0006F0 E0               [24] 2587 	movx	a,@dptr
      0006F1 FE               [12] 2588 	mov	r6,a
      0006F2 A3               [24] 2589 	inc	dptr
      0006F3 E0               [24] 2590 	movx	a,@dptr
      0006F4 FF               [12] 2591 	mov	r7,a
      0006F5 0E               [12] 2592 	inc	r6
      0006F6 BE 00 01         [24] 2593 	cjne	r6,#0x00,00217$
      0006F9 0F               [12] 2594 	inc	r7
      0006FA                       2595 00217$:
      0006FA 8E 82            [24] 2596 	mov	dpl,r6
      0006FC 8F 83            [24] 2597 	mov	dph,r7
                                   2598 ;	/home/mr-a-717/.stc/uni-stc/hal/advpwm-hal.c:493: }
      0006FE 22               [24] 2599 	ret
                                   2600 ;------------------------------------------------------------
                                   2601 ;Allocation info for local variables in function 'pwmEnableMainOutput'
                                   2602 ;------------------------------------------------------------
                                   2603 ;counter                   Allocated with name '_pwmEnableMainOutput_counter_65536_206'
                                   2604 ;------------------------------------------------------------
                                   2605 ;	/home/mr-a-717/.stc/uni-stc/hal/advpwm-hal.c:495: void pwmEnableMainOutput(PWM_Counter counter) {
                                   2606 ;	-----------------------------------------
                                   2607 ;	 function pwmEnableMainOutput
                                   2608 ;	-----------------------------------------
      0006FF                       2609 _pwmEnableMainOutput:
      0006FF E5 82            [12] 2610 	mov	a,dpl
      000701 90r00r61         [24] 2611 	mov	dptr,#_pwmEnableMainOutput_counter_65536_206
      000704 F0               [24] 2612 	movx	@dptr,a
                                   2613 ;	/home/mr-a-717/.stc/uni-stc/hal/advpwm-hal.c:496: switch (counter) {
      000705 E0               [24] 2614 	movx	a,@dptr
      000706 FF               [12] 2615 	mov	r7,a
      000707 60 05            [24] 2616 	jz	00101$
                                   2617 ;	/home/mr-a-717/.stc/uni-stc/hal/advpwm-hal.c:497: case PWM_COUNTER_A:
      000709 BF 01 13         [24] 2618 	cjne	r7,#0x01,00104$
      00070C 80 09            [24] 2619 	sjmp	00102$
      00070E                       2620 00101$:
                                   2621 ;	/home/mr-a-717/.stc/uni-stc/hal/advpwm-hal.c:498: PWMA_BKR |= M_MOE;
      00070E 90 FE DD         [24] 2622 	mov	dptr,#_PWMA_BKR
      000711 E0               [24] 2623 	movx	a,@dptr
      000712 43 E0 80         [24] 2624 	orl	acc,#0x80
      000715 F0               [24] 2625 	movx	@dptr,a
                                   2626 ;	/home/mr-a-717/.stc/uni-stc/hal/advpwm-hal.c:499: break;
                                   2627 ;	/home/mr-a-717/.stc/uni-stc/hal/advpwm-hal.c:502: case PWM_COUNTER_B:
      000716 22               [24] 2628 	ret
      000717                       2629 00102$:
                                   2630 ;	/home/mr-a-717/.stc/uni-stc/hal/advpwm-hal.c:503: PWMB_BKR |= M_MOE;
      000717 90 FE FD         [24] 2631 	mov	dptr,#_PWMB_BKR
      00071A E0               [24] 2632 	movx	a,@dptr
      00071B 43 E0 80         [24] 2633 	orl	acc,#0x80
      00071E F0               [24] 2634 	movx	@dptr,a
                                   2635 ;	/home/mr-a-717/.stc/uni-stc/hal/advpwm-hal.c:506: }
      00071F                       2636 00104$:
                                   2637 ;	/home/mr-a-717/.stc/uni-stc/hal/advpwm-hal.c:507: }
      00071F 22               [24] 2638 	ret
                                   2639 ;------------------------------------------------------------
                                   2640 ;Allocation info for local variables in function 'pwmEnableCounter'
                                   2641 ;------------------------------------------------------------
                                   2642 ;counter                   Allocated with name '_pwmEnableCounter_counter_65536_209'
                                   2643 ;------------------------------------------------------------
                                   2644 ;	/home/mr-a-717/.stc/uni-stc/hal/advpwm-hal.c:509: void pwmEnableCounter(PWM_Counter counter) {
                                   2645 ;	-----------------------------------------
                                   2646 ;	 function pwmEnableCounter
                                   2647 ;	-----------------------------------------
      000720                       2648 _pwmEnableCounter:
      000720 E5 82            [12] 2649 	mov	a,dpl
      000722 90r00r62         [24] 2650 	mov	dptr,#_pwmEnableCounter_counter_65536_209
      000725 F0               [24] 2651 	movx	@dptr,a
                                   2652 ;	/home/mr-a-717/.stc/uni-stc/hal/advpwm-hal.c:510: switch (counter) {
      000726 E0               [24] 2653 	movx	a,@dptr
      000727 FF               [12] 2654 	mov	r7,a
      000728 60 05            [24] 2655 	jz	00101$
                                   2656 ;	/home/mr-a-717/.stc/uni-stc/hal/advpwm-hal.c:511: case PWM_COUNTER_A:
      00072A BF 01 13         [24] 2657 	cjne	r7,#0x01,00104$
      00072D 80 09            [24] 2658 	sjmp	00102$
      00072F                       2659 00101$:
                                   2660 ;	/home/mr-a-717/.stc/uni-stc/hal/advpwm-hal.c:512: PWMA_CR1 |= M_CEN;
      00072F 90 FE C0         [24] 2661 	mov	dptr,#_PWMA_CR1
      000732 E0               [24] 2662 	movx	a,@dptr
      000733 43 E0 01         [24] 2663 	orl	acc,#0x01
      000736 F0               [24] 2664 	movx	@dptr,a
                                   2665 ;	/home/mr-a-717/.stc/uni-stc/hal/advpwm-hal.c:513: break;
                                   2666 ;	/home/mr-a-717/.stc/uni-stc/hal/advpwm-hal.c:516: case PWM_COUNTER_B:
      000737 22               [24] 2667 	ret
      000738                       2668 00102$:
                                   2669 ;	/home/mr-a-717/.stc/uni-stc/hal/advpwm-hal.c:517: PWMB_CR1 |= M_CEN;
      000738 90 FE E0         [24] 2670 	mov	dptr,#_PWMB_CR1
      00073B E0               [24] 2671 	movx	a,@dptr
      00073C 43 E0 01         [24] 2672 	orl	acc,#0x01
      00073F F0               [24] 2673 	movx	@dptr,a
                                   2674 ;	/home/mr-a-717/.stc/uni-stc/hal/advpwm-hal.c:520: }
      000740                       2675 00104$:
                                   2676 ;	/home/mr-a-717/.stc/uni-stc/hal/advpwm-hal.c:521: }
      000740 22               [24] 2677 	ret
                                   2678 ;------------------------------------------------------------
                                   2679 ;Allocation info for local variables in function 'enableChannelInterrupt'
                                   2680 ;------------------------------------------------------------
                                   2681 ;channel                   Allocated with name '_enableChannelInterrupt_channel_65536_212'
                                   2682 ;------------------------------------------------------------
                                   2683 ;	/home/mr-a-717/.stc/uni-stc/hal/advpwm-hal.c:586: static void enableChannelInterrupt(PWM_Channel channel) {
                                   2684 ;	-----------------------------------------
                                   2685 ;	 function enableChannelInterrupt
                                   2686 ;	-----------------------------------------
      000741                       2687 _enableChannelInterrupt:
      000741 E5 82            [12] 2688 	mov	a,dpl
      000743 90r00r63         [24] 2689 	mov	dptr,#_enableChannelInterrupt_channel_65536_212
      000746 F0               [24] 2690 	movx	@dptr,a
                                   2691 ;	/home/mr-a-717/.stc/uni-stc/hal/advpwm-hal.c:588: if (channel < PWM_Channel4) {
      000747 E0               [24] 2692 	movx	a,@dptr
      000748 FF               [12] 2693 	mov	r7,a
      000749 BF 08 00         [24] 2694 	cjne	r7,#0x08,00110$
      00074C                       2695 00110$:
      00074C 50 19            [24] 2696 	jnc	00102$
                                   2697 ;	/home/mr-a-717/.stc/uni-stc/hal/advpwm-hal.c:590: PWMA_IER |= 1 << ((channel >> 1) + 1);
      00074E EF               [12] 2698 	mov	a,r7
      00074F C3               [12] 2699 	clr	c
      000750 13               [12] 2700 	rrc	a
      000751 04               [12] 2701 	inc	a
      000752 F5 F0            [12] 2702 	mov	b,a
      000754 05 F0            [12] 2703 	inc	b
      000756 74 01            [12] 2704 	mov	a,#0x01
      000758 80 02            [24] 2705 	sjmp	00114$
      00075A                       2706 00112$:
      00075A 25 E0            [12] 2707 	add	a,acc
      00075C                       2708 00114$:
      00075C D5 F0 FB         [24] 2709 	djnz	b,00112$
      00075F FE               [12] 2710 	mov	r6,a
      000760 90 FE C4         [24] 2711 	mov	dptr,#_PWMA_IER
      000763 E0               [24] 2712 	movx	a,@dptr
      000764 4E               [12] 2713 	orl	a,r6
      000765 F0               [24] 2714 	movx	@dptr,a
      000766 22               [24] 2715 	ret
      000767                       2716 00102$:
                                   2717 ;	/home/mr-a-717/.stc/uni-stc/hal/advpwm-hal.c:593: PWMB_IER |= 1 << (((channel - PWM_Channel4) >> 1) + 1);
      000767 7E 00            [12] 2718 	mov	r6,#0x00
      000769 EF               [12] 2719 	mov	a,r7
      00076A 24 F8            [12] 2720 	add	a,#0xf8
      00076C FF               [12] 2721 	mov	r7,a
      00076D EE               [12] 2722 	mov	a,r6
      00076E 34 FF            [12] 2723 	addc	a,#0xff
      000770 A2 E7            [12] 2724 	mov	c,acc.7
      000772 13               [12] 2725 	rrc	a
      000773 CF               [12] 2726 	xch	a,r7
      000774 13               [12] 2727 	rrc	a
      000775 CF               [12] 2728 	xch	a,r7
      000776 EF               [12] 2729 	mov	a,r7
      000777 04               [12] 2730 	inc	a
      000778 F5 F0            [12] 2731 	mov	b,a
      00077A 05 F0            [12] 2732 	inc	b
      00077C 74 01            [12] 2733 	mov	a,#0x01
      00077E 80 02            [24] 2734 	sjmp	00117$
      000780                       2735 00115$:
      000780 25 E0            [12] 2736 	add	a,acc
      000782                       2737 00117$:
      000782 D5 F0 FB         [24] 2738 	djnz	b,00115$
      000785 FF               [12] 2739 	mov	r7,a
      000786 90 FE E4         [24] 2740 	mov	dptr,#_PWMB_IER
      000789 E0               [24] 2741 	movx	a,@dptr
      00078A 4F               [12] 2742 	orl	a,r7
      00078B F0               [24] 2743 	movx	@dptr,a
                                   2744 ;	/home/mr-a-717/.stc/uni-stc/hal/advpwm-hal.c:596: }
      00078C 22               [24] 2745 	ret
                                   2746 ;------------------------------------------------------------
                                   2747 ;Allocation info for local variables in function 'pwmInitialisePWM'
                                   2748 ;------------------------------------------------------------
                                   2749 ;initialLevel              Allocated with name '_pwmInitialisePWM_PARM_2'
                                   2750 ;enableInterrupt           Allocated with name '_pwmInitialisePWM_PARM_3'
                                   2751 ;registerUpdateMode        Allocated with name '_pwmInitialisePWM_PARM_4'
                                   2752 ;ticks                     Allocated with name '_pwmInitialisePWM_PARM_5'
                                   2753 ;channel                   Allocated with name '_pwmInitialisePWM_channel_65536_216'
                                   2754 ;ccmr                      Allocated with name '_pwmInitialisePWM_ccmr_65537_218'
                                   2755 ;------------------------------------------------------------
                                   2756 ;	/home/mr-a-717/.stc/uni-stc/hal/advpwm-hal.c:598: void pwmInitialisePWM(
                                   2757 ;	-----------------------------------------
                                   2758 ;	 function pwmInitialisePWM
                                   2759 ;	-----------------------------------------
      00078D                       2760 _pwmInitialisePWM:
      00078D E5 82            [12] 2761 	mov	a,dpl
      00078F 90r00r69         [24] 2762 	mov	dptr,#_pwmInitialisePWM_channel_65536_216
      000792 F0               [24] 2763 	movx	@dptr,a
                                   2764 ;	/home/mr-a-717/.stc/uni-stc/hal/advpwm-hal.c:606: closeChannel(channel);
      000793 E0               [24] 2765 	movx	a,@dptr
      000794 FF               [12] 2766 	mov	r7,a
      000795 F5 82            [12] 2767 	mov	dpl,a
      000797 C0 07            [24] 2768 	push	ar7
      000799 12r02rFA         [24] 2769 	lcall	_closeChannel
      00079C D0 07            [24] 2770 	pop	ar7
                                   2771 ;	/home/mr-a-717/.stc/uni-stc/hal/advpwm-hal.c:608: pwmSetDutyCycle(channel, ticks);
      00079E 90r00r67         [24] 2772 	mov	dptr,#_pwmInitialisePWM_PARM_5
      0007A1 E0               [24] 2773 	movx	a,@dptr
      0007A2 FD               [12] 2774 	mov	r5,a
      0007A3 A3               [24] 2775 	inc	dptr
      0007A4 E0               [24] 2776 	movx	a,@dptr
      0007A5 FE               [12] 2777 	mov	r6,a
      0007A6 90r00r6B         [24] 2778 	mov	dptr,#_pwmSetDutyCycle_PARM_2
      0007A9 ED               [12] 2779 	mov	a,r5
      0007AA F0               [24] 2780 	movx	@dptr,a
      0007AB EE               [12] 2781 	mov	a,r6
      0007AC A3               [24] 2782 	inc	dptr
      0007AD F0               [24] 2783 	movx	@dptr,a
      0007AE 8F 82            [24] 2784 	mov	dpl,r7
      0007B0 12r08r84         [24] 2785 	lcall	_pwmSetDutyCycle
                                   2786 ;	/home/mr-a-717/.stc/uni-stc/hal/advpwm-hal.c:611: uint8_t ccmr = (registerUpdateMode == PWM_BUFFERED_UPDATE) ? M_OC_PE : 0;
      0007B3 90r00r66         [24] 2787 	mov	dptr,#_pwmInitialisePWM_PARM_4
      0007B6 E0               [24] 2788 	movx	a,@dptr
      0007B7 FF               [12] 2789 	mov	r7,a
      0007B8 BF 01 06         [24] 2790 	cjne	r7,#0x01,00117$
      0007BB 7E 08            [12] 2791 	mov	r6,#0x08
      0007BD 7F 00            [12] 2792 	mov	r7,#0x00
      0007BF 80 04            [24] 2793 	sjmp	00118$
      0007C1                       2794 00117$:
      0007C1 7E 00            [12] 2795 	mov	r6,#0x00
      0007C3 7F 00            [12] 2796 	mov	r7,#0x00
      0007C5                       2797 00118$:
                                   2798 ;	/home/mr-a-717/.stc/uni-stc/hal/advpwm-hal.c:613: if (initialLevel == OUTPUT_HIGH) {
      0007C5 90r00r64         [24] 2799 	mov	dptr,#_pwmInitialisePWM_PARM_2
      0007C8 E0               [24] 2800 	movx	a,@dptr
      0007C9 FF               [12] 2801 	mov	r7,a
      0007CA BF 01 09         [24] 2802 	cjne	r7,#0x01,00102$
                                   2803 ;	/home/mr-a-717/.stc/uni-stc/hal/advpwm-hal.c:615: ccmr |= 6 << P_OC_M;
      0007CD 90r00r6A         [24] 2804 	mov	dptr,#_pwmInitialisePWM_ccmr_65537_218
      0007D0 74 60            [12] 2805 	mov	a,#0x60
      0007D2 4E               [12] 2806 	orl	a,r6
      0007D3 F0               [24] 2807 	movx	@dptr,a
      0007D4 80 07            [24] 2808 	sjmp	00103$
      0007D6                       2809 00102$:
                                   2810 ;	/home/mr-a-717/.stc/uni-stc/hal/advpwm-hal.c:618: ccmr |= 7 << P_OC_M;
      0007D6 90r00r6A         [24] 2811 	mov	dptr,#_pwmInitialisePWM_ccmr_65537_218
      0007D9 74 70            [12] 2812 	mov	a,#0x70
      0007DB 4E               [12] 2813 	orl	a,r6
      0007DC F0               [24] 2814 	movx	@dptr,a
      0007DD                       2815 00103$:
                                   2816 ;	/home/mr-a-717/.stc/uni-stc/hal/advpwm-hal.c:621: switch (channel) {
      0007DD 90r00r69         [24] 2817 	mov	dptr,#_pwmInitialisePWM_channel_65536_216
      0007E0 E0               [24] 2818 	movx	a,@dptr
      0007E1 FF               [12] 2819 	mov  r7,a
      0007E2 24 F1            [12] 2820 	add	a,#0xff - 0x0e
      0007E4 50 03            [24] 2821 	jnc	00139$
      0007E6 02r08r63         [24] 2822 	ljmp	00112$
      0007E9                       2823 00139$:
      0007E9 EF               [12] 2824 	mov	a,r7
      0007EA 24 0A            [12] 2825 	add	a,#(00140$-3-.)
      0007EC 83               [24] 2826 	movc	a,@a+pc
      0007ED F5 82            [12] 2827 	mov	dpl,a
      0007EF EF               [12] 2828 	mov	a,r7
      0007F0 24 13            [12] 2829 	add	a,#(00141$-3-.)
      0007F2 83               [24] 2830 	movc	a,@a+pc
      0007F3 F5 83            [12] 2831 	mov	dph,a
      0007F5 E4               [12] 2832 	clr	a
      0007F6 73               [24] 2833 	jmp	@a+dptr
      0007F7                       2834 00140$:
      0007F7r15                    2835 	.db	00104$
      0007F8r63                    2836 	.db	00112$
      0007F9r1F                    2837 	.db	00105$
      0007FAr63                    2838 	.db	00112$
      0007FBr29                    2839 	.db	00106$
      0007FCr63                    2840 	.db	00112$
      0007FDr33                    2841 	.db	00107$
      0007FEr63                    2842 	.db	00112$
      0007FFr3D                    2843 	.db	00108$
      000800r63                    2844 	.db	00112$
      000801r47                    2845 	.db	00109$
      000802r63                    2846 	.db	00112$
      000803r51                    2847 	.db	00110$
      000804r63                    2848 	.db	00112$
      000805r5B                    2849 	.db	00111$
      000806                       2850 00141$:
      000806s08                    2851 	.db	00104$>>8
      000807s08                    2852 	.db	00112$>>8
      000808s08                    2853 	.db	00105$>>8
      000809s08                    2854 	.db	00112$>>8
      00080As08                    2855 	.db	00106$>>8
      00080Bs08                    2856 	.db	00112$>>8
      00080Cs08                    2857 	.db	00107$>>8
      00080Ds08                    2858 	.db	00112$>>8
      00080Es08                    2859 	.db	00108$>>8
      00080Fs08                    2860 	.db	00112$>>8
      000810s08                    2861 	.db	00109$>>8
      000811s08                    2862 	.db	00112$>>8
      000812s08                    2863 	.db	00110$>>8
      000813s08                    2864 	.db	00112$>>8
      000814s08                    2865 	.db	00111$>>8
                                   2866 ;	/home/mr-a-717/.stc/uni-stc/hal/advpwm-hal.c:622: case PWM_Channel0:
      000815                       2867 00104$:
                                   2868 ;	/home/mr-a-717/.stc/uni-stc/hal/advpwm-hal.c:623: PWMA_CCMR1 = ccmr;
      000815 90r00r6A         [24] 2869 	mov	dptr,#_pwmInitialisePWM_ccmr_65537_218
      000818 E0               [24] 2870 	movx	a,@dptr
      000819 90 FE C8         [24] 2871 	mov	dptr,#_PWMA_CCMR1
      00081C F0               [24] 2872 	movx	@dptr,a
                                   2873 ;	/home/mr-a-717/.stc/uni-stc/hal/advpwm-hal.c:624: break;
                                   2874 ;	/home/mr-a-717/.stc/uni-stc/hal/advpwm-hal.c:626: case PWM_Channel1:
      00081D 80 44            [24] 2875 	sjmp	00112$
      00081F                       2876 00105$:
                                   2877 ;	/home/mr-a-717/.stc/uni-stc/hal/advpwm-hal.c:627: PWMA_CCMR2 = ccmr;
      00081F 90r00r6A         [24] 2878 	mov	dptr,#_pwmInitialisePWM_ccmr_65537_218
      000822 E0               [24] 2879 	movx	a,@dptr
      000823 90 FE C9         [24] 2880 	mov	dptr,#_PWMA_CCMR2
      000826 F0               [24] 2881 	movx	@dptr,a
                                   2882 ;	/home/mr-a-717/.stc/uni-stc/hal/advpwm-hal.c:628: break;
                                   2883 ;	/home/mr-a-717/.stc/uni-stc/hal/advpwm-hal.c:631: case PWM_Channel2:
      000827 80 3A            [24] 2884 	sjmp	00112$
      000829                       2885 00106$:
                                   2886 ;	/home/mr-a-717/.stc/uni-stc/hal/advpwm-hal.c:632: PWMA_CCMR3 = ccmr;
      000829 90r00r6A         [24] 2887 	mov	dptr,#_pwmInitialisePWM_ccmr_65537_218
      00082C E0               [24] 2888 	movx	a,@dptr
      00082D 90 FE CA         [24] 2889 	mov	dptr,#_PWMA_CCMR3
      000830 F0               [24] 2890 	movx	@dptr,a
                                   2891 ;	/home/mr-a-717/.stc/uni-stc/hal/advpwm-hal.c:633: break;
                                   2892 ;	/home/mr-a-717/.stc/uni-stc/hal/advpwm-hal.c:634: case PWM_Channel3:
      000831 80 30            [24] 2893 	sjmp	00112$
      000833                       2894 00107$:
                                   2895 ;	/home/mr-a-717/.stc/uni-stc/hal/advpwm-hal.c:635: PWMA_CCMR4 = ccmr;
      000833 90r00r6A         [24] 2896 	mov	dptr,#_pwmInitialisePWM_ccmr_65537_218
      000836 E0               [24] 2897 	movx	a,@dptr
      000837 90 FE CB         [24] 2898 	mov	dptr,#_PWMA_CCMR4
      00083A F0               [24] 2899 	movx	@dptr,a
                                   2900 ;	/home/mr-a-717/.stc/uni-stc/hal/advpwm-hal.c:636: break;
                                   2901 ;	/home/mr-a-717/.stc/uni-stc/hal/advpwm-hal.c:639: case PWM_Channel4:
      00083B 80 26            [24] 2902 	sjmp	00112$
      00083D                       2903 00108$:
                                   2904 ;	/home/mr-a-717/.stc/uni-stc/hal/advpwm-hal.c:640: PWMB_CCMR1 = ccmr;
      00083D 90r00r6A         [24] 2905 	mov	dptr,#_pwmInitialisePWM_ccmr_65537_218
      000840 E0               [24] 2906 	movx	a,@dptr
      000841 90 FE E8         [24] 2907 	mov	dptr,#_PWMB_CCMR1
      000844 F0               [24] 2908 	movx	@dptr,a
                                   2909 ;	/home/mr-a-717/.stc/uni-stc/hal/advpwm-hal.c:641: break;
                                   2910 ;	/home/mr-a-717/.stc/uni-stc/hal/advpwm-hal.c:642: case PWM_Channel5:
      000845 80 1C            [24] 2911 	sjmp	00112$
      000847                       2912 00109$:
                                   2913 ;	/home/mr-a-717/.stc/uni-stc/hal/advpwm-hal.c:643: PWMB_CCMR2 = ccmr;
      000847 90r00r6A         [24] 2914 	mov	dptr,#_pwmInitialisePWM_ccmr_65537_218
      00084A E0               [24] 2915 	movx	a,@dptr
      00084B 90 FE E9         [24] 2916 	mov	dptr,#_PWMB_CCMR2
      00084E F0               [24] 2917 	movx	@dptr,a
                                   2918 ;	/home/mr-a-717/.stc/uni-stc/hal/advpwm-hal.c:644: break;
                                   2919 ;	/home/mr-a-717/.stc/uni-stc/hal/advpwm-hal.c:645: case PWM_Channel6:
      00084F 80 12            [24] 2920 	sjmp	00112$
      000851                       2921 00110$:
                                   2922 ;	/home/mr-a-717/.stc/uni-stc/hal/advpwm-hal.c:646: PWMB_CCMR3 = ccmr;
      000851 90r00r6A         [24] 2923 	mov	dptr,#_pwmInitialisePWM_ccmr_65537_218
      000854 E0               [24] 2924 	movx	a,@dptr
      000855 90 FE EA         [24] 2925 	mov	dptr,#_PWMB_CCMR3
      000858 F0               [24] 2926 	movx	@dptr,a
                                   2927 ;	/home/mr-a-717/.stc/uni-stc/hal/advpwm-hal.c:647: break;
                                   2928 ;	/home/mr-a-717/.stc/uni-stc/hal/advpwm-hal.c:648: case PWM_Channel7:
      000859 80 08            [24] 2929 	sjmp	00112$
      00085B                       2930 00111$:
                                   2931 ;	/home/mr-a-717/.stc/uni-stc/hal/advpwm-hal.c:649: PWMB_CCMR4 = ccmr;
      00085B 90r00r6A         [24] 2932 	mov	dptr,#_pwmInitialisePWM_ccmr_65537_218
      00085E E0               [24] 2933 	movx	a,@dptr
      00085F 90 FE EB         [24] 2934 	mov	dptr,#_PWMB_CCMR4
      000862 F0               [24] 2935 	movx	@dptr,a
                                   2936 ;	/home/mr-a-717/.stc/uni-stc/hal/advpwm-hal.c:652: }
      000863                       2937 00112$:
                                   2938 ;	/home/mr-a-717/.stc/uni-stc/hal/advpwm-hal.c:654: channelUsage[channel >> 1] = USAGE_PWM;
      000863 EF               [12] 2939 	mov	a,r7
      000864 C3               [12] 2940 	clr	c
      000865 13               [12] 2941 	rrc	a
      000866 24r00            [12] 2942 	add	a,#_channelUsage
      000868 F5 82            [12] 2943 	mov	dpl,a
      00086A E4               [12] 2944 	clr	a
      00086B 34s00            [12] 2945 	addc	a,#(_channelUsage >> 8)
      00086D F5 83            [12] 2946 	mov	dph,a
      00086F 74 01            [12] 2947 	mov	a,#0x01
      000871 F0               [24] 2948 	movx	@dptr,a
                                   2949 ;	/home/mr-a-717/.stc/uni-stc/hal/advpwm-hal.c:656: if (enableInterrupt == ENABLE_INTERRUPT) {
      000872 90r00r65         [24] 2950 	mov	dptr,#_pwmInitialisePWM_PARM_3
      000875 E0               [24] 2951 	movx	a,@dptr
      000876 FF               [12] 2952 	mov	r7,a
      000877 BF 01 09         [24] 2953 	cjne	r7,#0x01,00115$
                                   2954 ;	/home/mr-a-717/.stc/uni-stc/hal/advpwm-hal.c:657: enableChannelInterrupt(channel);
      00087A 90r00r69         [24] 2955 	mov	dptr,#_pwmInitialisePWM_channel_65536_216
      00087D E0               [24] 2956 	movx	a,@dptr
      00087E F5 82            [12] 2957 	mov	dpl,a
                                   2958 ;	/home/mr-a-717/.stc/uni-stc/hal/advpwm-hal.c:659: }
      000880 02r07r41         [24] 2959 	ljmp	_enableChannelInterrupt
      000883                       2960 00115$:
      000883 22               [24] 2961 	ret
                                   2962 ;------------------------------------------------------------
                                   2963 ;Allocation info for local variables in function 'pwmSetDutyCycle'
                                   2964 ;------------------------------------------------------------
                                   2965 ;ticks                     Allocated with name '_pwmSetDutyCycle_PARM_2'
                                   2966 ;channel                   Allocated with name '_pwmSetDutyCycle_channel_65536_223'
                                   2967 ;ticksH                    Allocated with name '_pwmSetDutyCycle_ticksH_65536_224'
                                   2968 ;ticksL                    Allocated with name '_pwmSetDutyCycle_ticksL_65536_224'
                                   2969 ;------------------------------------------------------------
                                   2970 ;	/home/mr-a-717/.stc/uni-stc/hal/advpwm-hal.c:738: void pwmSetDutyCycle(PWM_Channel channel, uint16_t ticks) {
                                   2971 ;	-----------------------------------------
                                   2972 ;	 function pwmSetDutyCycle
                                   2973 ;	-----------------------------------------
      000884                       2974 _pwmSetDutyCycle:
      000884 E5 82            [12] 2975 	mov	a,dpl
      000886 90r00r6D         [24] 2976 	mov	dptr,#_pwmSetDutyCycle_channel_65536_223
      000889 F0               [24] 2977 	movx	@dptr,a
                                   2978 ;	/home/mr-a-717/.stc/uni-stc/hal/advpwm-hal.c:739: uint8_t ticksH = ticks >> 8;
      00088A 90r00r6B         [24] 2979 	mov	dptr,#_pwmSetDutyCycle_PARM_2
      00088D E0               [24] 2980 	movx	a,@dptr
      00088E FE               [12] 2981 	mov	r6,a
      00088F A3               [24] 2982 	inc	dptr
      000890 E0               [24] 2983 	movx	a,@dptr
      000891 FF               [12] 2984 	mov	r7,a
      000892 FD               [12] 2985 	mov	r5,a
                                   2986 ;	/home/mr-a-717/.stc/uni-stc/hal/advpwm-hal.c:740: uint8_t ticksL = ticks;
                                   2987 ;	/home/mr-a-717/.stc/uni-stc/hal/advpwm-hal.c:742: switch (channel) {
      000893 90r00r6D         [24] 2988 	mov	dptr,#_pwmSetDutyCycle_channel_65536_223
      000896 E0               [24] 2989 	movx	a,@dptr
      000897 FF               [12] 2990 	mov  r7,a
      000898 24 F1            [12] 2991 	add	a,#0xff - 0x0e
      00089A 50 01            [24] 2992 	jnc	00116$
      00089C 22               [24] 2993 	ret
      00089D                       2994 00116$:
      00089D EF               [12] 2995 	mov	a,r7
      00089E 24 0A            [12] 2996 	add	a,#(00117$-3-.)
      0008A0 83               [24] 2997 	movc	a,@a+pc
      0008A1 F5 82            [12] 2998 	mov	dpl,a
      0008A3 EF               [12] 2999 	mov	a,r7
      0008A4 24 13            [12] 3000 	add	a,#(00118$-3-.)
      0008A6 83               [24] 3001 	movc	a,@a+pc
      0008A7 F5 83            [12] 3002 	mov	dph,a
      0008A9 E4               [12] 3003 	clr	a
      0008AA 73               [24] 3004 	jmp	@a+dptr
      0008AB                       3005 00117$:
      0008ABrC9                    3006 	.db	00101$
      0008ACr20                    3007 	.db	00110$
      0008ADrD4                    3008 	.db	00102$
      0008AEr20                    3009 	.db	00110$
      0008AFrDF                    3010 	.db	00103$
      0008B0r20                    3011 	.db	00110$
      0008B1rEA                    3012 	.db	00104$
      0008B2r20                    3013 	.db	00110$
      0008B3rF5                    3014 	.db	00105$
      0008B4r20                    3015 	.db	00110$
      0008B5r00                    3016 	.db	00106$
      0008B6r20                    3017 	.db	00110$
      0008B7r0B                    3018 	.db	00107$
      0008B8r20                    3019 	.db	00110$
      0008B9r16                    3020 	.db	00108$
      0008BA                       3021 00118$:
      0008BAs08                    3022 	.db	00101$>>8
      0008BBs09                    3023 	.db	00110$>>8
      0008BCs08                    3024 	.db	00102$>>8
      0008BDs09                    3025 	.db	00110$>>8
      0008BEs08                    3026 	.db	00103$>>8
      0008BFs09                    3027 	.db	00110$>>8
      0008C0s08                    3028 	.db	00104$>>8
      0008C1s09                    3029 	.db	00110$>>8
      0008C2s08                    3030 	.db	00105$>>8
      0008C3s09                    3031 	.db	00110$>>8
      0008C4s09                    3032 	.db	00106$>>8
      0008C5s09                    3033 	.db	00110$>>8
      0008C6s09                    3034 	.db	00107$>>8
      0008C7s09                    3035 	.db	00110$>>8
      0008C8s09                    3036 	.db	00108$>>8
                                   3037 ;	/home/mr-a-717/.stc/uni-stc/hal/advpwm-hal.c:743: case PWM_Channel0:
      0008C9                       3038 00101$:
                                   3039 ;	/home/mr-a-717/.stc/uni-stc/hal/advpwm-hal.c:744: PWMA_CCR1H = ticksH;
      0008C9 90 FE D5         [24] 3040 	mov	dptr,#_PWMA_CCR1H
      0008CC ED               [12] 3041 	mov	a,r5
      0008CD F0               [24] 3042 	movx	@dptr,a
                                   3043 ;	/home/mr-a-717/.stc/uni-stc/hal/advpwm-hal.c:745: PWMA_CCR1L = ticksL;
      0008CE 90 FE D6         [24] 3044 	mov	dptr,#_PWMA_CCR1L
      0008D1 EE               [12] 3045 	mov	a,r6
      0008D2 F0               [24] 3046 	movx	@dptr,a
                                   3047 ;	/home/mr-a-717/.stc/uni-stc/hal/advpwm-hal.c:746: break;
                                   3048 ;	/home/mr-a-717/.stc/uni-stc/hal/advpwm-hal.c:748: case PWM_Channel1:
      0008D3 22               [24] 3049 	ret
      0008D4                       3050 00102$:
                                   3051 ;	/home/mr-a-717/.stc/uni-stc/hal/advpwm-hal.c:749: PWMA_CCR2H = ticksH;
      0008D4 90 FE D7         [24] 3052 	mov	dptr,#_PWMA_CCR2H
      0008D7 ED               [12] 3053 	mov	a,r5
      0008D8 F0               [24] 3054 	movx	@dptr,a
                                   3055 ;	/home/mr-a-717/.stc/uni-stc/hal/advpwm-hal.c:750: PWMA_CCR2L = ticksL;
      0008D9 90 FE D8         [24] 3056 	mov	dptr,#_PWMA_CCR2L
      0008DC EE               [12] 3057 	mov	a,r6
      0008DD F0               [24] 3058 	movx	@dptr,a
                                   3059 ;	/home/mr-a-717/.stc/uni-stc/hal/advpwm-hal.c:751: break;
                                   3060 ;	/home/mr-a-717/.stc/uni-stc/hal/advpwm-hal.c:754: case PWM_Channel2:
      0008DE 22               [24] 3061 	ret
      0008DF                       3062 00103$:
                                   3063 ;	/home/mr-a-717/.stc/uni-stc/hal/advpwm-hal.c:755: PWMA_CCR3H = ticksH;
      0008DF 90 FE D9         [24] 3064 	mov	dptr,#_PWMA_CCR3H
      0008E2 ED               [12] 3065 	mov	a,r5
      0008E3 F0               [24] 3066 	movx	@dptr,a
                                   3067 ;	/home/mr-a-717/.stc/uni-stc/hal/advpwm-hal.c:756: PWMA_CCR3L = ticksL;
      0008E4 90 FE DA         [24] 3068 	mov	dptr,#_PWMA_CCR3L
      0008E7 EE               [12] 3069 	mov	a,r6
      0008E8 F0               [24] 3070 	movx	@dptr,a
                                   3071 ;	/home/mr-a-717/.stc/uni-stc/hal/advpwm-hal.c:757: break;
                                   3072 ;	/home/mr-a-717/.stc/uni-stc/hal/advpwm-hal.c:758: case PWM_Channel3:
      0008E9 22               [24] 3073 	ret
      0008EA                       3074 00104$:
                                   3075 ;	/home/mr-a-717/.stc/uni-stc/hal/advpwm-hal.c:759: PWMA_CCR4H = ticksH;
      0008EA 90 FE DB         [24] 3076 	mov	dptr,#_PWMA_CCR4H
      0008ED ED               [12] 3077 	mov	a,r5
      0008EE F0               [24] 3078 	movx	@dptr,a
                                   3079 ;	/home/mr-a-717/.stc/uni-stc/hal/advpwm-hal.c:760: PWMA_CCR4L = ticksL;
      0008EF 90 FE DC         [24] 3080 	mov	dptr,#_PWMA_CCR4L
      0008F2 EE               [12] 3081 	mov	a,r6
      0008F3 F0               [24] 3082 	movx	@dptr,a
                                   3083 ;	/home/mr-a-717/.stc/uni-stc/hal/advpwm-hal.c:761: break;
                                   3084 ;	/home/mr-a-717/.stc/uni-stc/hal/advpwm-hal.c:764: case PWM_Channel4:
      0008F4 22               [24] 3085 	ret
      0008F5                       3086 00105$:
                                   3087 ;	/home/mr-a-717/.stc/uni-stc/hal/advpwm-hal.c:765: PWMB_CCR1H = ticksH;
      0008F5 90 FE F5         [24] 3088 	mov	dptr,#_PWMB_CCR1H
      0008F8 ED               [12] 3089 	mov	a,r5
      0008F9 F0               [24] 3090 	movx	@dptr,a
                                   3091 ;	/home/mr-a-717/.stc/uni-stc/hal/advpwm-hal.c:766: PWMB_CCR1L = ticksL;
      0008FA 90 FE F6         [24] 3092 	mov	dptr,#_PWMB_CCR1L
      0008FD EE               [12] 3093 	mov	a,r6
      0008FE F0               [24] 3094 	movx	@dptr,a
                                   3095 ;	/home/mr-a-717/.stc/uni-stc/hal/advpwm-hal.c:767: break;
                                   3096 ;	/home/mr-a-717/.stc/uni-stc/hal/advpwm-hal.c:768: case PWM_Channel5:
      0008FF 22               [24] 3097 	ret
      000900                       3098 00106$:
                                   3099 ;	/home/mr-a-717/.stc/uni-stc/hal/advpwm-hal.c:769: PWMB_CCR2H = ticksH;
      000900 90 FE F7         [24] 3100 	mov	dptr,#_PWMB_CCR2H
      000903 ED               [12] 3101 	mov	a,r5
      000904 F0               [24] 3102 	movx	@dptr,a
                                   3103 ;	/home/mr-a-717/.stc/uni-stc/hal/advpwm-hal.c:770: PWMB_CCR2L = ticksL;
      000905 90 FE F8         [24] 3104 	mov	dptr,#_PWMB_CCR2L
      000908 EE               [12] 3105 	mov	a,r6
      000909 F0               [24] 3106 	movx	@dptr,a
                                   3107 ;	/home/mr-a-717/.stc/uni-stc/hal/advpwm-hal.c:771: break;
                                   3108 ;	/home/mr-a-717/.stc/uni-stc/hal/advpwm-hal.c:772: case PWM_Channel6:
      00090A 22               [24] 3109 	ret
      00090B                       3110 00107$:
                                   3111 ;	/home/mr-a-717/.stc/uni-stc/hal/advpwm-hal.c:773: PWMB_CCR3H = ticksH;
      00090B 90 FE F9         [24] 3112 	mov	dptr,#_PWMB_CCR3H
      00090E ED               [12] 3113 	mov	a,r5
      00090F F0               [24] 3114 	movx	@dptr,a
                                   3115 ;	/home/mr-a-717/.stc/uni-stc/hal/advpwm-hal.c:774: PWMB_CCR3L = ticksL;
      000910 90 FE FA         [24] 3116 	mov	dptr,#_PWMB_CCR3L
      000913 EE               [12] 3117 	mov	a,r6
      000914 F0               [24] 3118 	movx	@dptr,a
                                   3119 ;	/home/mr-a-717/.stc/uni-stc/hal/advpwm-hal.c:775: break;
                                   3120 ;	/home/mr-a-717/.stc/uni-stc/hal/advpwm-hal.c:776: case PWM_Channel7:
      000915 22               [24] 3121 	ret
      000916                       3122 00108$:
                                   3123 ;	/home/mr-a-717/.stc/uni-stc/hal/advpwm-hal.c:777: PWMB_CCR4H = ticksH;
      000916 90 FE FB         [24] 3124 	mov	dptr,#_PWMB_CCR4H
      000919 ED               [12] 3125 	mov	a,r5
      00091A F0               [24] 3126 	movx	@dptr,a
                                   3127 ;	/home/mr-a-717/.stc/uni-stc/hal/advpwm-hal.c:778: PWMB_CCR4L = ticksL;
      00091B 90 FE FC         [24] 3128 	mov	dptr,#_PWMB_CCR4L
      00091E EE               [12] 3129 	mov	a,r6
      00091F F0               [24] 3130 	movx	@dptr,a
                                   3131 ;	/home/mr-a-717/.stc/uni-stc/hal/advpwm-hal.c:781: }
      000920                       3132 00110$:
                                   3133 ;	/home/mr-a-717/.stc/uni-stc/hal/advpwm-hal.c:782: }
      000920 22               [24] 3134 	ret
                                   3135 ;------------------------------------------------------------
                                   3136 ;Allocation info for local variables in function 'configureInput'
                                   3137 ;------------------------------------------------------------
                                   3138 ;pinSwitch                 Allocated with name '_configureInput_PARM_2'
                                   3139 ;captureEdge               Allocated with name '_configureInput_PARM_3'
                                   3140 ;captureSource             Allocated with name '_configureInput_PARM_4'
                                   3141 ;filter                    Allocated with name '_configureInput_PARM_5'
                                   3142 ;channel                   Allocated with name '_configureInput_channel_65536_226'
                                   3143 ;ccmr                      Allocated with name '_configureInput_ccmr_65537_228'
                                   3144 ;------------------------------------------------------------
                                   3145 ;	/home/mr-a-717/.stc/uni-stc/hal/advpwm-hal.c:878: static void configureInput(
                                   3146 ;	-----------------------------------------
                                   3147 ;	 function configureInput
                                   3148 ;	-----------------------------------------
      000921                       3149 _configureInput:
      000921 E5 82            [12] 3150 	mov	a,dpl
      000923 90r00r72         [24] 3151 	mov	dptr,#_configureInput_channel_65536_226
      000926 F0               [24] 3152 	movx	@dptr,a
                                   3153 ;	/home/mr-a-717/.stc/uni-stc/hal/advpwm-hal.c:885: applyPinSwitch(channel, pinSwitch);
      000927 E0               [24] 3154 	movx	a,@dptr
      000928 FF               [12] 3155 	mov	r7,a
      000929 90r00r6E         [24] 3156 	mov	dptr,#_configureInput_PARM_2
      00092C E0               [24] 3157 	movx	a,@dptr
      00092D FE               [12] 3158 	mov	r6,a
      00092E 90r00r35         [24] 3159 	mov	dptr,#_applyPinSwitch_PARM_2
      000931 F0               [24] 3160 	movx	@dptr,a
      000932 8F 82            [24] 3161 	mov	dpl,r7
      000934 C0 07            [24] 3162 	push	ar7
      000936 C0 06            [24] 3163 	push	ar6
      000938 12r00rF1         [24] 3164 	lcall	_applyPinSwitch
      00093B D0 06            [24] 3165 	pop	ar6
      00093D D0 07            [24] 3166 	pop	ar7
                                   3167 ;	/home/mr-a-717/.stc/uni-stc/hal/advpwm-hal.c:886: configurePin(getChannelPin(channel, pinSwitch, 0), GPIO_HIGH_IMPEDANCE_MODE);
      00093F 90r00r21         [24] 3168 	mov	dptr,#_getChannelPin_PARM_2
      000942 EE               [12] 3169 	mov	a,r6
      000943 F0               [24] 3170 	movx	@dptr,a
      000944 90r00r22         [24] 3171 	mov	dptr,#_getChannelPin_PARM_3
      000947 E4               [12] 3172 	clr	a
      000948 F0               [24] 3173 	movx	@dptr,a
      000949 8F 82            [24] 3174 	mov	dpl,r7
      00094B C0 07            [24] 3175 	push	ar7
      00094D 12r00r00         [24] 3176 	lcall	_getChannelPin
      000950 AE 82            [24] 3177 	mov	r6,dpl
      000952 90r00r25         [24] 3178 	mov	dptr,#_configurePin_PARM_2
      000955 74 02            [12] 3179 	mov	a,#0x02
      000957 F0               [24] 3180 	movx	@dptr,a
      000958 8E 82            [24] 3181 	mov	dpl,r6
      00095A 12r00r78         [24] 3182 	lcall	_configurePin
      00095D D0 07            [24] 3183 	pop	ar7
                                   3184 ;	/home/mr-a-717/.stc/uni-stc/hal/advpwm-hal.c:887: uint8_t ccmr = (filter << 4) | captureSource;
      00095F 90r00r71         [24] 3185 	mov	dptr,#_configureInput_PARM_5
      000962 E0               [24] 3186 	movx	a,@dptr
      000963 C4               [12] 3187 	swap	a
      000964 54 F0            [12] 3188 	anl	a,#0xf0
      000966 FE               [12] 3189 	mov	r6,a
      000967 90r00r70         [24] 3190 	mov	dptr,#_configureInput_PARM_4
      00096A E0               [24] 3191 	movx	a,@dptr
      00096B 42 06            [12] 3192 	orl	ar6,a
                                   3193 ;	/home/mr-a-717/.stc/uni-stc/hal/advpwm-hal.c:889: switch (channel) {
      00096D EF               [12] 3194 	mov	a,r7
      00096E FD               [12] 3195 	mov	r5,a
      00096F 24 F1            [12] 3196 	add	a,#0xff - 0x0e
      000971 50 03            [24] 3197 	jnc	00116$
      000973 02r09rD8         [24] 3198 	ljmp	00109$
      000976                       3199 00116$:
      000976 ED               [12] 3200 	mov	a,r5
      000977 24 0A            [12] 3201 	add	a,#(00117$-3-.)
      000979 83               [24] 3202 	movc	a,@a+pc
      00097A F5 82            [12] 3203 	mov	dpl,a
      00097C ED               [12] 3204 	mov	a,r5
      00097D 24 13            [12] 3205 	add	a,#(00118$-3-.)
      00097F 83               [24] 3206 	movc	a,@a+pc
      000980 F5 83            [12] 3207 	mov	dph,a
      000982 E4               [12] 3208 	clr	a
      000983 73               [24] 3209 	jmp	@a+dptr
      000984                       3210 00117$:
      000984rA2                    3211 	.db	00101$
      000985rD8                    3212 	.db	00109$
      000986rA9                    3213 	.db	00102$
      000987rD8                    3214 	.db	00109$
      000988rB0                    3215 	.db	00103$
      000989rD8                    3216 	.db	00109$
      00098ArB7                    3217 	.db	00104$
      00098BrD8                    3218 	.db	00109$
      00098CrBE                    3219 	.db	00105$
      00098DrD8                    3220 	.db	00109$
      00098ErC5                    3221 	.db	00106$
      00098FrD8                    3222 	.db	00109$
      000990rCC                    3223 	.db	00107$
      000991rD8                    3224 	.db	00109$
      000992rD3                    3225 	.db	00108$
      000993                       3226 00118$:
      000993s09                    3227 	.db	00101$>>8
      000994s09                    3228 	.db	00109$>>8
      000995s09                    3229 	.db	00102$>>8
      000996s09                    3230 	.db	00109$>>8
      000997s09                    3231 	.db	00103$>>8
      000998s09                    3232 	.db	00109$>>8
      000999s09                    3233 	.db	00104$>>8
      00099As09                    3234 	.db	00109$>>8
      00099Bs09                    3235 	.db	00105$>>8
      00099Cs09                    3236 	.db	00109$>>8
      00099Ds09                    3237 	.db	00106$>>8
      00099Es09                    3238 	.db	00109$>>8
      00099Fs09                    3239 	.db	00107$>>8
      0009A0s09                    3240 	.db	00109$>>8
      0009A1s09                    3241 	.db	00108$>>8
                                   3242 ;	/home/mr-a-717/.stc/uni-stc/hal/advpwm-hal.c:890: case PWM_Channel0:
      0009A2                       3243 00101$:
                                   3244 ;	/home/mr-a-717/.stc/uni-stc/hal/advpwm-hal.c:891: PWMA_CCMR1 = ccmr;
      0009A2 90 FE C8         [24] 3245 	mov	dptr,#_PWMA_CCMR1
      0009A5 EE               [12] 3246 	mov	a,r6
      0009A6 F0               [24] 3247 	movx	@dptr,a
                                   3248 ;	/home/mr-a-717/.stc/uni-stc/hal/advpwm-hal.c:892: break;
                                   3249 ;	/home/mr-a-717/.stc/uni-stc/hal/advpwm-hal.c:894: case PWM_Channel1:
      0009A7 80 2F            [24] 3250 	sjmp	00109$
      0009A9                       3251 00102$:
                                   3252 ;	/home/mr-a-717/.stc/uni-stc/hal/advpwm-hal.c:895: PWMA_CCMR2 = ccmr;
      0009A9 90 FE C9         [24] 3253 	mov	dptr,#_PWMA_CCMR2
      0009AC EE               [12] 3254 	mov	a,r6
      0009AD F0               [24] 3255 	movx	@dptr,a
                                   3256 ;	/home/mr-a-717/.stc/uni-stc/hal/advpwm-hal.c:896: break;
                                   3257 ;	/home/mr-a-717/.stc/uni-stc/hal/advpwm-hal.c:899: case PWM_Channel2:
      0009AE 80 28            [24] 3258 	sjmp	00109$
      0009B0                       3259 00103$:
                                   3260 ;	/home/mr-a-717/.stc/uni-stc/hal/advpwm-hal.c:900: PWMA_CCMR3 = ccmr;
      0009B0 90 FE CA         [24] 3261 	mov	dptr,#_PWMA_CCMR3
      0009B3 EE               [12] 3262 	mov	a,r6
      0009B4 F0               [24] 3263 	movx	@dptr,a
                                   3264 ;	/home/mr-a-717/.stc/uni-stc/hal/advpwm-hal.c:901: break;
                                   3265 ;	/home/mr-a-717/.stc/uni-stc/hal/advpwm-hal.c:902: case PWM_Channel3:
      0009B5 80 21            [24] 3266 	sjmp	00109$
      0009B7                       3267 00104$:
                                   3268 ;	/home/mr-a-717/.stc/uni-stc/hal/advpwm-hal.c:903: PWMA_CCMR4 = ccmr;
      0009B7 90 FE CB         [24] 3269 	mov	dptr,#_PWMA_CCMR4
      0009BA EE               [12] 3270 	mov	a,r6
      0009BB F0               [24] 3271 	movx	@dptr,a
                                   3272 ;	/home/mr-a-717/.stc/uni-stc/hal/advpwm-hal.c:904: break;
                                   3273 ;	/home/mr-a-717/.stc/uni-stc/hal/advpwm-hal.c:907: case PWM_Channel4:
      0009BC 80 1A            [24] 3274 	sjmp	00109$
      0009BE                       3275 00105$:
                                   3276 ;	/home/mr-a-717/.stc/uni-stc/hal/advpwm-hal.c:908: PWMB_CCMR1 = ccmr;
      0009BE 90 FE E8         [24] 3277 	mov	dptr,#_PWMB_CCMR1
      0009C1 EE               [12] 3278 	mov	a,r6
      0009C2 F0               [24] 3279 	movx	@dptr,a
                                   3280 ;	/home/mr-a-717/.stc/uni-stc/hal/advpwm-hal.c:909: break;
                                   3281 ;	/home/mr-a-717/.stc/uni-stc/hal/advpwm-hal.c:910: case PWM_Channel5:
      0009C3 80 13            [24] 3282 	sjmp	00109$
      0009C5                       3283 00106$:
                                   3284 ;	/home/mr-a-717/.stc/uni-stc/hal/advpwm-hal.c:911: PWMB_CCMR2 = ccmr;
      0009C5 90 FE E9         [24] 3285 	mov	dptr,#_PWMB_CCMR2
      0009C8 EE               [12] 3286 	mov	a,r6
      0009C9 F0               [24] 3287 	movx	@dptr,a
                                   3288 ;	/home/mr-a-717/.stc/uni-stc/hal/advpwm-hal.c:912: break;
                                   3289 ;	/home/mr-a-717/.stc/uni-stc/hal/advpwm-hal.c:913: case PWM_Channel6:
      0009CA 80 0C            [24] 3290 	sjmp	00109$
      0009CC                       3291 00107$:
                                   3292 ;	/home/mr-a-717/.stc/uni-stc/hal/advpwm-hal.c:914: PWMB_CCMR3 = ccmr;
      0009CC 90 FE EA         [24] 3293 	mov	dptr,#_PWMB_CCMR3
      0009CF EE               [12] 3294 	mov	a,r6
      0009D0 F0               [24] 3295 	movx	@dptr,a
                                   3296 ;	/home/mr-a-717/.stc/uni-stc/hal/advpwm-hal.c:915: break;
                                   3297 ;	/home/mr-a-717/.stc/uni-stc/hal/advpwm-hal.c:916: case PWM_Channel7:
      0009D1 80 05            [24] 3298 	sjmp	00109$
      0009D3                       3299 00108$:
                                   3300 ;	/home/mr-a-717/.stc/uni-stc/hal/advpwm-hal.c:917: PWMB_CCMR4 = ccmr;
      0009D3 90 FE EB         [24] 3301 	mov	dptr,#_PWMB_CCMR4
      0009D6 EE               [12] 3302 	mov	a,r6
      0009D7 F0               [24] 3303 	movx	@dptr,a
                                   3304 ;	/home/mr-a-717/.stc/uni-stc/hal/advpwm-hal.c:920: }
      0009D8                       3305 00109$:
                                   3306 ;	/home/mr-a-717/.stc/uni-stc/hal/advpwm-hal.c:922: enableChannel(channel, 0, captureEdge);
      0009D8 90r00r72         [24] 3307 	mov	dptr,#_configureInput_channel_65536_226
      0009DB E0               [24] 3308 	movx	a,@dptr
      0009DC FF               [12] 3309 	mov	r7,a
      0009DD 90r00r6F         [24] 3310 	mov	dptr,#_configureInput_PARM_3
      0009E0 E0               [24] 3311 	movx	a,@dptr
      0009E1 FE               [12] 3312 	mov	r6,a
      0009E2 90r00r39         [24] 3313 	mov	dptr,#_enableChannel_PARM_2
      0009E5 E4               [12] 3314 	clr	a
      0009E6 F0               [24] 3315 	movx	@dptr,a
      0009E7 90r00r3A         [24] 3316 	mov	dptr,#_enableChannel_PARM_3
      0009EA EE               [12] 3317 	mov	a,r6
      0009EB F0               [24] 3318 	movx	@dptr,a
      0009EC 8F 82            [24] 3319 	mov	dpl,r7
                                   3320 ;	/home/mr-a-717/.stc/uni-stc/hal/advpwm-hal.c:923: }
      0009EE 02r01rB0         [24] 3321 	ljmp	_enableChannel
                                   3322 ;------------------------------------------------------------
                                   3323 ;Allocation info for local variables in function 'pwmInitialiseQuadratureEncoder'
                                   3324 ;------------------------------------------------------------
                                   3325 ;pinSwitch                 Allocated with name '_pwmInitialiseQuadratureEncoder_PARM_2'
                                   3326 ;captureEdge               Allocated with name '_pwmInitialiseQuadratureEncoder_PARM_3'
                                   3327 ;filter                    Allocated with name '_pwmInitialiseQuadratureEncoder_PARM_4'
                                   3328 ;counter                   Allocated with name '_pwmInitialiseQuadratureEncoder_counter_65536_230'
                                   3329 ;firstChannel              Allocated with name '_pwmInitialiseQuadratureEncoder_firstChannel_65536_231'
                                   3330 ;secondChannel             Allocated with name '_pwmInitialiseQuadratureEncoder_secondChannel_65536_231'
                                   3331 ;------------------------------------------------------------
                                   3332 ;	/home/mr-a-717/.stc/uni-stc/hal/advpwm-hal.c:926: void pwmInitialiseQuadratureEncoder(
                                   3333 ;	-----------------------------------------
                                   3334 ;	 function pwmInitialiseQuadratureEncoder
                                   3335 ;	-----------------------------------------
      0009F1                       3336 _pwmInitialiseQuadratureEncoder:
      0009F1 E5 82            [12] 3337 	mov	a,dpl
      0009F3 90r00r76         [24] 3338 	mov	dptr,#_pwmInitialiseQuadratureEncoder_counter_65536_230
      0009F6 F0               [24] 3339 	movx	@dptr,a
                                   3340 ;	/home/mr-a-717/.stc/uni-stc/hal/advpwm-hal.c:933: PWM_Channel firstChannel = (counter == PWM_COUNTER_A) ? PWM_Channel0 : PWM_Channel4;
      0009F7 E0               [24] 3341 	movx	a,@dptr
      0009F8 FF               [12] 3342 	mov	r7,a
      0009F9 70 04            [24] 3343 	jnz	00103$
      0009FB FD               [12] 3344 	mov	r5,a
      0009FC FE               [12] 3345 	mov	r6,a
      0009FD 80 04            [24] 3346 	sjmp	00104$
      0009FF                       3347 00103$:
      0009FF 7D 08            [12] 3348 	mov	r5,#0x08
      000A01 7E 00            [12] 3349 	mov	r6,#0x00
      000A03                       3350 00104$:
                                   3351 ;	/home/mr-a-717/.stc/uni-stc/hal/advpwm-hal.c:937: PWM_Channel secondChannel = firstChannel + 2;
      000A03 8D 06            [24] 3352 	mov	ar6,r5
      000A05 0E               [12] 3353 	inc	r6
      000A06 0E               [12] 3354 	inc	r6
                                   3355 ;	/home/mr-a-717/.stc/uni-stc/hal/advpwm-hal.c:950: DISABLE_INTERRUPT
      000A07 90r00r4C         [24] 3356 	mov	dptr,#_pwmConfigureCounter_PARM_2
      000A0A E4               [12] 3357 	clr	a
      000A0B F0               [24] 3358 	movx	@dptr,a
      000A0C A3               [24] 3359 	inc	dptr
      000A0D F0               [24] 3360 	movx	@dptr,a
      000A0E A3               [24] 3361 	inc	dptr
      000A0F F0               [24] 3362 	movx	@dptr,a
      000A10 A3               [24] 3363 	inc	dptr
      000A11 F0               [24] 3364 	movx	@dptr,a
      000A12 90r00r50         [24] 3365 	mov	dptr,#_pwmConfigureCounter_PARM_3
      000A15 14               [12] 3366 	dec	a
      000A16 F0               [24] 3367 	movx	@dptr,a
      000A17 A3               [24] 3368 	inc	dptr
      000A18 F0               [24] 3369 	movx	@dptr,a
      000A19 E4               [12] 3370 	clr	a
      000A1A A3               [24] 3371 	inc	dptr
      000A1B F0               [24] 3372 	movx	@dptr,a
      000A1C A3               [24] 3373 	inc	dptr
      000A1D F0               [24] 3374 	movx	@dptr,a
      000A1E 90r00r54         [24] 3375 	mov	dptr,#_pwmConfigureCounter_PARM_4
      000A21 74 03            [12] 3376 	mov	a,#0x03
      000A23 F0               [24] 3377 	movx	@dptr,a
      000A24 90r00r55         [24] 3378 	mov	dptr,#_pwmConfigureCounter_PARM_5
      000A27 E4               [12] 3379 	clr	a
      000A28 F0               [24] 3380 	movx	@dptr,a
      000A29 90r00r56         [24] 3381 	mov	dptr,#_pwmConfigureCounter_PARM_6
      000A2C F0               [24] 3382 	movx	@dptr,a
      000A2D 90r00r57         [24] 3383 	mov	dptr,#_pwmConfigureCounter_PARM_7
      000A30 F0               [24] 3384 	movx	@dptr,a
      000A31 90r00r58         [24] 3385 	mov	dptr,#_pwmConfigureCounter_PARM_8
      000A34 F0               [24] 3386 	movx	@dptr,a
      000A35 90r00r59         [24] 3387 	mov	dptr,#_pwmConfigureCounter_PARM_9
      000A38 F0               [24] 3388 	movx	@dptr,a
      000A39 90r00r5A         [24] 3389 	mov	dptr,#_pwmConfigureCounter_PARM_10
      000A3C 04               [12] 3390 	inc	a
      000A3D F0               [24] 3391 	movx	@dptr,a
      000A3E 90r00r5B         [24] 3392 	mov	dptr,#_pwmConfigureCounter_PARM_11
      000A41 E4               [12] 3393 	clr	a
      000A42 F0               [24] 3394 	movx	@dptr,a
      000A43 8F 82            [24] 3395 	mov	dpl,r7
      000A45 C0 07            [24] 3396 	push	ar7
      000A47 C0 06            [24] 3397 	push	ar6
      000A49 C0 05            [24] 3398 	push	ar5
      000A4B 12r04rBF         [24] 3399 	lcall	_pwmConfigureCounter
      000A4E D0 05            [24] 3400 	pop	ar5
                                   3401 ;	/home/mr-a-717/.stc/uni-stc/hal/advpwm-hal.c:955: pinSwitch,
      000A50 90r00r73         [24] 3402 	mov	dptr,#_pwmInitialiseQuadratureEncoder_PARM_2
      000A53 E0               [24] 3403 	movx	a,@dptr
      000A54 FC               [12] 3404 	mov	r4,a
                                   3405 ;	/home/mr-a-717/.stc/uni-stc/hal/advpwm-hal.c:956: captureEdge,
      000A55 90r00r74         [24] 3406 	mov	dptr,#_pwmInitialiseQuadratureEncoder_PARM_3
      000A58 E0               [24] 3407 	movx	a,@dptr
      000A59 FB               [12] 3408 	mov	r3,a
                                   3409 ;	/home/mr-a-717/.stc/uni-stc/hal/advpwm-hal.c:958: filter
      000A5A 90r00r75         [24] 3410 	mov	dptr,#_pwmInitialiseQuadratureEncoder_PARM_4
      000A5D E0               [24] 3411 	movx	a,@dptr
      000A5E FA               [12] 3412 	mov	r2,a
      000A5F 90r00r6E         [24] 3413 	mov	dptr,#_configureInput_PARM_2
      000A62 EC               [12] 3414 	mov	a,r4
      000A63 F0               [24] 3415 	movx	@dptr,a
      000A64 90r00r6F         [24] 3416 	mov	dptr,#_configureInput_PARM_3
      000A67 EB               [12] 3417 	mov	a,r3
      000A68 F0               [24] 3418 	movx	@dptr,a
      000A69 90r00r70         [24] 3419 	mov	dptr,#_configureInput_PARM_4
      000A6C 74 01            [12] 3420 	mov	a,#0x01
      000A6E F0               [24] 3421 	movx	@dptr,a
      000A6F 90r00r71         [24] 3422 	mov	dptr,#_configureInput_PARM_5
      000A72 EA               [12] 3423 	mov	a,r2
      000A73 F0               [24] 3424 	movx	@dptr,a
      000A74 8D 82            [24] 3425 	mov	dpl,r5
      000A76 C0 05            [24] 3426 	push	ar5
      000A78 C0 04            [24] 3427 	push	ar4
      000A7A C0 03            [24] 3428 	push	ar3
      000A7C C0 02            [24] 3429 	push	ar2
      000A7E 12r09r21         [24] 3430 	lcall	_configureInput
      000A81 D0 02            [24] 3431 	pop	ar2
      000A83 D0 03            [24] 3432 	pop	ar3
      000A85 D0 04            [24] 3433 	pop	ar4
      000A87 D0 05            [24] 3434 	pop	ar5
      000A89 D0 06            [24] 3435 	pop	ar6
                                   3436 ;	/home/mr-a-717/.stc/uni-stc/hal/advpwm-hal.c:966: filter
      000A8B 90r00r6E         [24] 3437 	mov	dptr,#_configureInput_PARM_2
      000A8E EC               [12] 3438 	mov	a,r4
      000A8F F0               [24] 3439 	movx	@dptr,a
      000A90 90r00r6F         [24] 3440 	mov	dptr,#_configureInput_PARM_3
      000A93 EB               [12] 3441 	mov	a,r3
      000A94 F0               [24] 3442 	movx	@dptr,a
      000A95 90r00r70         [24] 3443 	mov	dptr,#_configureInput_PARM_4
      000A98 74 01            [12] 3444 	mov	a,#0x01
      000A9A F0               [24] 3445 	movx	@dptr,a
      000A9B 90r00r71         [24] 3446 	mov	dptr,#_configureInput_PARM_5
      000A9E EA               [12] 3447 	mov	a,r2
      000A9F F0               [24] 3448 	movx	@dptr,a
      000AA0 8E 82            [24] 3449 	mov	dpl,r6
      000AA2 C0 06            [24] 3450 	push	ar6
      000AA4 C0 05            [24] 3451 	push	ar5
      000AA6 12r09r21         [24] 3452 	lcall	_configureInput
      000AA9 D0 05            [24] 3453 	pop	ar5
      000AAB D0 06            [24] 3454 	pop	ar6
                                   3455 ;	/home/mr-a-717/.stc/uni-stc/hal/advpwm-hal.c:969: channelUsage[firstChannel >> 1] = USAGE_ENCODER;
      000AAD ED               [12] 3456 	mov	a,r5
      000AAE C3               [12] 3457 	clr	c
      000AAF 13               [12] 3458 	rrc	a
      000AB0 24r00            [12] 3459 	add	a,#_channelUsage
      000AB2 F5 82            [12] 3460 	mov	dpl,a
      000AB4 E4               [12] 3461 	clr	a
      000AB5 34s00            [12] 3462 	addc	a,#(_channelUsage >> 8)
      000AB7 F5 83            [12] 3463 	mov	dph,a
      000AB9 74 02            [12] 3464 	mov	a,#0x02
      000ABB F0               [24] 3465 	movx	@dptr,a
                                   3466 ;	/home/mr-a-717/.stc/uni-stc/hal/advpwm-hal.c:970: channelUsage[secondChannel >> 1] = USAGE_ENCODER;
      000ABC EE               [12] 3467 	mov	a,r6
      000ABD C3               [12] 3468 	clr	c
      000ABE 13               [12] 3469 	rrc	a
      000ABF 24r00            [12] 3470 	add	a,#_channelUsage
      000AC1 F5 82            [12] 3471 	mov	dpl,a
      000AC3 E4               [12] 3472 	clr	a
      000AC4 34s00            [12] 3473 	addc	a,#(_channelUsage >> 8)
      000AC6 F5 83            [12] 3474 	mov	dph,a
      000AC8 74 02            [12] 3475 	mov	a,#0x02
      000ACA F0               [24] 3476 	movx	@dptr,a
                                   3477 ;	/home/mr-a-717/.stc/uni-stc/hal/advpwm-hal.c:973: enableChannelInterrupt(firstChannel);
      000ACB 8D 82            [24] 3478 	mov	dpl,r5
      000ACD 12r07r41         [24] 3479 	lcall	_enableChannelInterrupt
      000AD0 D0 07            [24] 3480 	pop	ar7
                                   3481 ;	/home/mr-a-717/.stc/uni-stc/hal/advpwm-hal.c:975: pwmEnableCounter(counter);
      000AD2 8F 82            [24] 3482 	mov	dpl,r7
                                   3483 ;	/home/mr-a-717/.stc/uni-stc/hal/advpwm-hal.c:976: }
      000AD4 02r07r20         [24] 3484 	ljmp	_pwmEnableCounter
                                   3485 ;------------------------------------------------------------
                                   3486 ;Allocation info for local variables in function 'pwmInitialiseCapture'
                                   3487 ;------------------------------------------------------------
                                   3488 ;pinSwitch                 Allocated with name '_pwmInitialiseCapture_PARM_2'
                                   3489 ;captureEdge               Allocated with name '_pwmInitialiseCapture_PARM_3'
                                   3490 ;captureSource             Allocated with name '_pwmInitialiseCapture_PARM_4'
                                   3491 ;filter                    Allocated with name '_pwmInitialiseCapture_PARM_5'
                                   3492 ;reference                 Allocated with name '_pwmInitialiseCapture_PARM_6'
                                   3493 ;channel                   Allocated with name '_pwmInitialiseCapture_channel_65536_232'
                                   3494 ;channelIndex              Allocated with name '_pwmInitialiseCapture_channelIndex_65537_234'
                                   3495 ;------------------------------------------------------------
                                   3496 ;	/home/mr-a-717/.stc/uni-stc/hal/advpwm-hal.c:979: void pwmInitialiseCapture(
                                   3497 ;	-----------------------------------------
                                   3498 ;	 function pwmInitialiseCapture
                                   3499 ;	-----------------------------------------
      000AD7                       3500 _pwmInitialiseCapture:
      000AD7 E5 82            [12] 3501 	mov	a,dpl
      000AD9 90r00r7C         [24] 3502 	mov	dptr,#_pwmInitialiseCapture_channel_65536_232
      000ADC F0               [24] 3503 	movx	@dptr,a
                                   3504 ;	/home/mr-a-717/.stc/uni-stc/hal/advpwm-hal.c:988: channel, 
      000ADD E0               [24] 3505 	movx	a,@dptr
      000ADE FF               [12] 3506 	mov	r7,a
                                   3507 ;	/home/mr-a-717/.stc/uni-stc/hal/advpwm-hal.c:989: pinSwitch,
      000ADF 90r00r77         [24] 3508 	mov	dptr,#_pwmInitialiseCapture_PARM_2
      000AE2 E0               [24] 3509 	movx	a,@dptr
      000AE3 FE               [12] 3510 	mov	r6,a
                                   3511 ;	/home/mr-a-717/.stc/uni-stc/hal/advpwm-hal.c:990: captureEdge,
      000AE4 90r00r78         [24] 3512 	mov	dptr,#_pwmInitialiseCapture_PARM_3
      000AE7 E0               [24] 3513 	movx	a,@dptr
      000AE8 FD               [12] 3514 	mov	r5,a
                                   3515 ;	/home/mr-a-717/.stc/uni-stc/hal/advpwm-hal.c:991: captureSource,
      000AE9 90r00r79         [24] 3516 	mov	dptr,#_pwmInitialiseCapture_PARM_4
      000AEC E0               [24] 3517 	movx	a,@dptr
      000AED FC               [12] 3518 	mov	r4,a
                                   3519 ;	/home/mr-a-717/.stc/uni-stc/hal/advpwm-hal.c:992: filter
      000AEE 90r00r7A         [24] 3520 	mov	dptr,#_pwmInitialiseCapture_PARM_5
      000AF1 E0               [24] 3521 	movx	a,@dptr
      000AF2 FB               [12] 3522 	mov	r3,a
      000AF3 90r00r6E         [24] 3523 	mov	dptr,#_configureInput_PARM_2
      000AF6 EE               [12] 3524 	mov	a,r6
      000AF7 F0               [24] 3525 	movx	@dptr,a
      000AF8 90r00r6F         [24] 3526 	mov	dptr,#_configureInput_PARM_3
      000AFB ED               [12] 3527 	mov	a,r5
      000AFC F0               [24] 3528 	movx	@dptr,a
      000AFD 90r00r70         [24] 3529 	mov	dptr,#_configureInput_PARM_4
      000B00 EC               [12] 3530 	mov	a,r4
      000B01 F0               [24] 3531 	movx	@dptr,a
      000B02 90r00r71         [24] 3532 	mov	dptr,#_configureInput_PARM_5
      000B05 EB               [12] 3533 	mov	a,r3
      000B06 F0               [24] 3534 	movx	@dptr,a
      000B07 8F 82            [24] 3535 	mov	dpl,r7
      000B09 C0 07            [24] 3536 	push	ar7
      000B0B 12r09r21         [24] 3537 	lcall	_configureInput
      000B0E D0 07            [24] 3538 	pop	ar7
                                   3539 ;	/home/mr-a-717/.stc/uni-stc/hal/advpwm-hal.c:995: uint8_t channelIndex = channel >> 1;
      000B10 EF               [12] 3540 	mov	a,r7
      000B11 C3               [12] 3541 	clr	c
      000B12 13               [12] 3542 	rrc	a
                                   3543 ;	/home/mr-a-717/.stc/uni-stc/hal/advpwm-hal.c:996: channelUsage[channelIndex] = USAGE_CAPTURE | reference;
      000B13 FE               [12] 3544 	mov	r6,a
      000B14 24r00            [12] 3545 	add	a,#_channelUsage
      000B16 FC               [12] 3546 	mov	r4,a
      000B17 E4               [12] 3547 	clr	a
      000B18 34s00            [12] 3548 	addc	a,#(_channelUsage >> 8)
      000B1A FD               [12] 3549 	mov	r5,a
      000B1B 90r00r7B         [24] 3550 	mov	dptr,#_pwmInitialiseCapture_PARM_6
      000B1E E0               [24] 3551 	movx	a,@dptr
      000B1F 44 03            [12] 3552 	orl	a,#0x03
      000B21 8C 82            [24] 3553 	mov	dpl,r4
      000B23 8D 83            [24] 3554 	mov	dph,r5
      000B25 F0               [24] 3555 	movx	@dptr,a
                                   3556 ;	/home/mr-a-717/.stc/uni-stc/hal/advpwm-hal.c:997: channelLastCount[channelIndex].value = 0UL;
      000B26 EE               [12] 3557 	mov	a,r6
      000B27 75 F0 04         [24] 3558 	mov	b,#0x04
      000B2A A4               [48] 3559 	mul	ab
      000B2B 24r01            [12] 3560 	add	a,#_channelLastCount
      000B2D F5 82            [12] 3561 	mov	dpl,a
      000B2F 74s00            [12] 3562 	mov	a,#(_channelLastCount >> 8)
      000B31 35 F0            [12] 3563 	addc	a,b
      000B33 F5 83            [12] 3564 	mov	dph,a
      000B35 E4               [12] 3565 	clr	a
      000B36 F0               [24] 3566 	movx	@dptr,a
      000B37 A3               [24] 3567 	inc	dptr
      000B38 F0               [24] 3568 	movx	@dptr,a
      000B39 A3               [24] 3569 	inc	dptr
      000B3A F0               [24] 3570 	movx	@dptr,a
      000B3B A3               [24] 3571 	inc	dptr
      000B3C F0               [24] 3572 	movx	@dptr,a
                                   3573 ;	/home/mr-a-717/.stc/uni-stc/hal/advpwm-hal.c:998: enableChannelInterrupt(channel);
      000B3D 8F 82            [24] 3574 	mov	dpl,r7
                                   3575 ;	/home/mr-a-717/.stc/uni-stc/hal/advpwm-hal.c:999: }
      000B3F 02r07r41         [24] 3576 	ljmp	_enableChannelInterrupt
                                   3577 ;------------------------------------------------------------
                                   3578 ;Allocation info for local variables in function 'pwmA_isr'
                                   3579 ;------------------------------------------------------------
                                   3580 ;sloc0                     Allocated with name '_pwmA_isr_sloc0_1_0'
                                   3581 ;channel                   Allocated with name '_pwmA_isr_channel_65536_236'
                                   3582 ;event                     Allocated with name '_pwmA_isr_event_65536_236'
                                   3583 ;channelIndex              Allocated with name '_pwmA_isr_channelIndex_131072_245'
                                   3584 ;usage                     Allocated with name '_pwmA_isr_usage_131072_245'
                                   3585 ;counter                   Allocated with name '_pwmA_isr_counter_262144_247'
                                   3586 ;refIndex                  Allocated with name '_pwmA_isr_refIndex_262145_249'
                                   3587 ;channelNewCount           Allocated with name '_pwmA_isr_channelNewCount_262146_252'
                                   3588 ;elapsed                   Allocated with name '_pwmA_isr_elapsed_262146_252'
                                   3589 ;------------------------------------------------------------
                                   3590 ;	/home/mr-a-717/.stc/uni-stc/hal/advpwm-hal.c:1001: INTERRUPT(pwmA_isr, PWMA_INTERRUPT) {
                                   3591 ;	-----------------------------------------
                                   3592 ;	 function pwmA_isr
                                   3593 ;	-----------------------------------------
      000B42                       3594 _pwmA_isr:
      000B42 C0*00            [24] 3595 	push	bits
      000B44 C0 E0            [24] 3596 	push	acc
      000B46 C0 F0            [24] 3597 	push	b
      000B48 C0 82            [24] 3598 	push	dpl
      000B4A C0 83            [24] 3599 	push	dph
      000B4C C0 07            [24] 3600 	push	(0+7)
      000B4E C0 06            [24] 3601 	push	(0+6)
      000B50 C0 05            [24] 3602 	push	(0+5)
      000B52 C0 04            [24] 3603 	push	(0+4)
      000B54 C0 03            [24] 3604 	push	(0+3)
      000B56 C0 02            [24] 3605 	push	(0+2)
      000B58 C0 01            [24] 3606 	push	(0+1)
      000B5A C0 00            [24] 3607 	push	(0+0)
      000B5C C0 D0            [24] 3608 	push	psw
      000B5E 75 D0 00         [24] 3609 	mov	psw,#0x00
                                   3610 ;	/home/mr-a-717/.stc/uni-stc/hal/advpwm-hal.c:1002: uint8_t channel = 255;
      000B61 90r00r7D         [24] 3611 	mov	dptr,#_pwmA_isr_channel_65536_236
      000B64 74 FF            [12] 3612 	mov	a,#0xff
      000B66 F0               [24] 3613 	movx	@dptr,a
                                   3614 ;	/home/mr-a-717/.stc/uni-stc/hal/advpwm-hal.c:1004: uint8_t event = 255;
      000B67 90r00r7E         [24] 3615 	mov	dptr,#_pwmA_isr_event_65536_236
      000B6A F0               [24] 3616 	movx	@dptr,a
                                   3617 ;	/home/mr-a-717/.stc/uni-stc/hal/advpwm-hal.c:1007: if (PWMA_SR1 & M_CC1IF) {
      000B6B 90 FE C5         [24] 3618 	mov	dptr,#_PWMA_SR1
      000B6E E0               [24] 3619 	movx	a,@dptr
      000B6F 30 E1 0D         [24] 3620 	jnb	acc.1,00102$
                                   3621 ;	/home/mr-a-717/.stc/uni-stc/hal/advpwm-hal.c:1008: PWMA_SR1 &= ~M_CC1IF;
      000B72 90 FE C5         [24] 3622 	mov	dptr,#_PWMA_SR1
      000B75 E0               [24] 3623 	movx	a,@dptr
      000B76 53 E0 FD         [24] 3624 	anl	acc,#0xfd
      000B79 F0               [24] 3625 	movx	@dptr,a
                                   3626 ;	/home/mr-a-717/.stc/uni-stc/hal/advpwm-hal.c:1009: channel = PWM_Channel0;
      000B7A 90r00r7D         [24] 3627 	mov	dptr,#_pwmA_isr_channel_65536_236
      000B7D E4               [12] 3628 	clr	a
      000B7E F0               [24] 3629 	movx	@dptr,a
      000B7F                       3630 00102$:
                                   3631 ;	/home/mr-a-717/.stc/uni-stc/hal/advpwm-hal.c:1013: if (PWMA_SR1 & M_CC2IF) {
      000B7F 90 FE C5         [24] 3632 	mov	dptr,#_PWMA_SR1
      000B82 E0               [24] 3633 	movx	a,@dptr
      000B83 30 E2 0E         [24] 3634 	jnb	acc.2,00104$
                                   3635 ;	/home/mr-a-717/.stc/uni-stc/hal/advpwm-hal.c:1014: PWMA_SR1 &= ~M_CC2IF;
      000B86 90 FE C5         [24] 3636 	mov	dptr,#_PWMA_SR1
      000B89 E0               [24] 3637 	movx	a,@dptr
      000B8A 53 E0 FB         [24] 3638 	anl	acc,#0xfb
      000B8D F0               [24] 3639 	movx	@dptr,a
                                   3640 ;	/home/mr-a-717/.stc/uni-stc/hal/advpwm-hal.c:1015: channel = PWM_Channel1;
      000B8E 90r00r7D         [24] 3641 	mov	dptr,#_pwmA_isr_channel_65536_236
      000B91 74 02            [12] 3642 	mov	a,#0x02
      000B93 F0               [24] 3643 	movx	@dptr,a
      000B94                       3644 00104$:
                                   3645 ;	/home/mr-a-717/.stc/uni-stc/hal/advpwm-hal.c:1020: if (PWMA_SR1 & M_CC3IF) {
      000B94 90 FE C5         [24] 3646 	mov	dptr,#_PWMA_SR1
      000B97 E0               [24] 3647 	movx	a,@dptr
      000B98 30 E3 0E         [24] 3648 	jnb	acc.3,00106$
                                   3649 ;	/home/mr-a-717/.stc/uni-stc/hal/advpwm-hal.c:1021: PWMA_SR1 &= ~M_CC3IF;
      000B9B 90 FE C5         [24] 3650 	mov	dptr,#_PWMA_SR1
      000B9E E0               [24] 3651 	movx	a,@dptr
      000B9F 53 E0 F7         [24] 3652 	anl	acc,#0xf7
      000BA2 F0               [24] 3653 	movx	@dptr,a
                                   3654 ;	/home/mr-a-717/.stc/uni-stc/hal/advpwm-hal.c:1022: channel = PWM_Channel2;
      000BA3 90r00r7D         [24] 3655 	mov	dptr,#_pwmA_isr_channel_65536_236
      000BA6 74 04            [12] 3656 	mov	a,#0x04
      000BA8 F0               [24] 3657 	movx	@dptr,a
      000BA9                       3658 00106$:
                                   3659 ;	/home/mr-a-717/.stc/uni-stc/hal/advpwm-hal.c:1025: if (PWMA_SR1 & M_CC4IF) {
      000BA9 90 FE C5         [24] 3660 	mov	dptr,#_PWMA_SR1
      000BAC E0               [24] 3661 	movx	a,@dptr
      000BAD 30 E4 0E         [24] 3662 	jnb	acc.4,00108$
                                   3663 ;	/home/mr-a-717/.stc/uni-stc/hal/advpwm-hal.c:1026: PWMA_SR1 &= ~M_CC4IF;
      000BB0 90 FE C5         [24] 3664 	mov	dptr,#_PWMA_SR1
      000BB3 E0               [24] 3665 	movx	a,@dptr
      000BB4 53 E0 EF         [24] 3666 	anl	acc,#0xef
      000BB7 F0               [24] 3667 	movx	@dptr,a
                                   3668 ;	/home/mr-a-717/.stc/uni-stc/hal/advpwm-hal.c:1027: channel = PWM_Channel3;
      000BB8 90r00r7D         [24] 3669 	mov	dptr,#_pwmA_isr_channel_65536_236
      000BBB 74 06            [12] 3670 	mov	a,#0x06
      000BBD F0               [24] 3671 	movx	@dptr,a
      000BBE                       3672 00108$:
                                   3673 ;	/home/mr-a-717/.stc/uni-stc/hal/advpwm-hal.c:1031: if (PWMA_SR1 & M_TIF) {
      000BBE 90 FE C5         [24] 3674 	mov	dptr,#_PWMA_SR1
      000BC1 E0               [24] 3675 	movx	a,@dptr
      000BC2 30 E6 0E         [24] 3676 	jnb	acc.6,00110$
                                   3677 ;	/home/mr-a-717/.stc/uni-stc/hal/advpwm-hal.c:1032: PWMA_SR1 &= ~M_TIF;
      000BC5 90 FE C5         [24] 3678 	mov	dptr,#_PWMA_SR1
      000BC8 E0               [24] 3679 	movx	a,@dptr
      000BC9 53 E0 BF         [24] 3680 	anl	acc,#0xbf
      000BCC F0               [24] 3681 	movx	@dptr,a
                                   3682 ;	/home/mr-a-717/.stc/uni-stc/hal/advpwm-hal.c:1034: event = PWM_INTERRUPT_TRIGGER;
      000BCD 90r00r7E         [24] 3683 	mov	dptr,#_pwmA_isr_event_65536_236
      000BD0 74 01            [12] 3684 	mov	a,#0x01
      000BD2 F0               [24] 3685 	movx	@dptr,a
      000BD3                       3686 00110$:
                                   3687 ;	/home/mr-a-717/.stc/uni-stc/hal/advpwm-hal.c:1038: if (PWMA_SR1 & M_COMIF) {
      000BD3 90 FE C5         [24] 3688 	mov	dptr,#_PWMA_SR1
      000BD6 E0               [24] 3689 	movx	a,@dptr
      000BD7 30 E5 0E         [24] 3690 	jnb	acc.5,00112$
                                   3691 ;	/home/mr-a-717/.stc/uni-stc/hal/advpwm-hal.c:1039: PWMA_SR1 &= ~M_COMIF;
      000BDA 90 FE C5         [24] 3692 	mov	dptr,#_PWMA_SR1
      000BDD E0               [24] 3693 	movx	a,@dptr
      000BDE 53 E0 DF         [24] 3694 	anl	acc,#0xdf
      000BE1 F0               [24] 3695 	movx	@dptr,a
                                   3696 ;	/home/mr-a-717/.stc/uni-stc/hal/advpwm-hal.c:1041: event = PWM_INTERRUPT_COM;
      000BE2 90r00r7E         [24] 3697 	mov	dptr,#_pwmA_isr_event_65536_236
      000BE5 74 02            [12] 3698 	mov	a,#0x02
      000BE7 F0               [24] 3699 	movx	@dptr,a
      000BE8                       3700 00112$:
                                   3701 ;	/home/mr-a-717/.stc/uni-stc/hal/advpwm-hal.c:1045: if (PWMA_SR1 & M_UIF) {
      000BE8 90 FE C5         [24] 3702 	mov	dptr,#_PWMA_SR1
      000BEB E0               [24] 3703 	movx	a,@dptr
      000BEC 30 E0 23         [24] 3704 	jnb	acc.0,00114$
                                   3705 ;	/home/mr-a-717/.stc/uni-stc/hal/advpwm-hal.c:1046: PWMA_SR1 &= ~M_UIF;
      000BEF 90 FE C5         [24] 3706 	mov	dptr,#_PWMA_SR1
      000BF2 E0               [24] 3707 	movx	a,@dptr
      000BF3 53 E0 FE         [24] 3708 	anl	acc,#0xfe
      000BF6 F0               [24] 3709 	movx	@dptr,a
                                   3710 ;	/home/mr-a-717/.stc/uni-stc/hal/advpwm-hal.c:1048: event = PWM_INTERRUPT_UPDATE;
      000BF7 90r00r7E         [24] 3711 	mov	dptr,#_pwmA_isr_event_65536_236
      000BFA 74 03            [12] 3712 	mov	a,#0x03
      000BFC F0               [24] 3713 	movx	@dptr,a
                                   3714 ;	/home/mr-a-717/.stc/uni-stc/hal/advpwm-hal.c:1050: counterOverflow[PWM_COUNTER_A]++;
      000BFD 90r00r08         [24] 3715 	mov	dptr,#_counterOverflow
      000C00 E0               [24] 3716 	movx	a,@dptr
      000C01 FE               [12] 3717 	mov	r6,a
      000C02 A3               [24] 3718 	inc	dptr
      000C03 E0               [24] 3719 	movx	a,@dptr
      000C04 FF               [12] 3720 	mov	r7,a
      000C05 0E               [12] 3721 	inc	r6
      000C06 BE 00 01         [24] 3722 	cjne	r6,#0x00,00235$
      000C09 0F               [12] 3723 	inc	r7
      000C0A                       3724 00235$:
      000C0A 90r00r08         [24] 3725 	mov	dptr,#_counterOverflow
      000C0D EE               [12] 3726 	mov	a,r6
      000C0E F0               [24] 3727 	movx	@dptr,a
      000C0F EF               [12] 3728 	mov	a,r7
      000C10 A3               [24] 3729 	inc	dptr
      000C11 F0               [24] 3730 	movx	@dptr,a
      000C12                       3731 00114$:
                                   3732 ;	/home/mr-a-717/.stc/uni-stc/hal/advpwm-hal.c:1053: if (PWMA_SR1 & M_BIF) {
      000C12 90 FE C5         [24] 3733 	mov	dptr,#_PWMA_SR1
      000C15 E0               [24] 3734 	movx	a,@dptr
      000C16 30 E7 0D         [24] 3735 	jnb	acc.7,00116$
                                   3736 ;	/home/mr-a-717/.stc/uni-stc/hal/advpwm-hal.c:1057: PWMA_SR1 &= ~M_BIF;
      000C19 90 FE C5         [24] 3737 	mov	dptr,#_PWMA_SR1
      000C1C E0               [24] 3738 	movx	a,@dptr
      000C1D 53 E0 7F         [24] 3739 	anl	acc,#0x7f
      000C20 F0               [24] 3740 	movx	@dptr,a
                                   3741 ;	/home/mr-a-717/.stc/uni-stc/hal/advpwm-hal.c:1059: event = PWM_INTERRUPT_FAULT;
      000C21 90r00r7E         [24] 3742 	mov	dptr,#_pwmA_isr_event_65536_236
      000C24 E4               [12] 3743 	clr	a
      000C25 F0               [24] 3744 	movx	@dptr,a
      000C26                       3745 00116$:
                                   3746 ;	/home/mr-a-717/.stc/uni-stc/hal/advpwm-hal.c:1063: if (channel != 255) {
      000C26 90r00r7D         [24] 3747 	mov	dptr,#_pwmA_isr_channel_65536_236
      000C29 E0               [24] 3748 	movx	a,@dptr
      000C2A FF               [12] 3749 	mov	r7,a
      000C2B BF FF 03         [24] 3750 	cjne	r7,#0xff,00237$
      000C2E 02r0DrCC         [24] 3751 	ljmp	00135$
      000C31                       3752 00237$:
                                   3753 ;	/home/mr-a-717/.stc/uni-stc/hal/advpwm-hal.c:1064: uint8_t channelIndex = channel >> 1;
      000C31 EF               [12] 3754 	mov	a,r7
      000C32 C3               [12] 3755 	clr	c
      000C33 13               [12] 3756 	rrc	a
                                   3757 ;	/home/mr-a-717/.stc/uni-stc/hal/advpwm-hal.c:1065: PWM_ChannelUsage usage = channelUsage[channelIndex];
      000C34 FE               [12] 3758 	mov	r6,a
      000C35 24r00            [12] 3759 	add	a,#_channelUsage
      000C37 F5 82            [12] 3760 	mov	dpl,a
      000C39 E4               [12] 3761 	clr	a
      000C3A 34s00            [12] 3762 	addc	a,#(_channelUsage >> 8)
      000C3C F5 83            [12] 3763 	mov	dph,a
      000C3E E0               [24] 3764 	movx	a,@dptr
      000C3F FD               [12] 3765 	mov	r5,a
                                   3766 ;	/home/mr-a-717/.stc/uni-stc/hal/advpwm-hal.c:1067: switch (usage) {
      000C40 BD 00 03         [24] 3767 	cjne	r5,#0x00,00238$
      000C43 02r0DrCC         [24] 3768 	ljmp	00135$
      000C46                       3769 00238$:
      000C46 BD 01 02         [24] 3770 	cjne	r5,#0x01,00239$
      000C49 80 05            [24] 3771 	sjmp	00118$
      000C4B                       3772 00239$:
                                   3773 ;	/home/mr-a-717/.stc/uni-stc/hal/advpwm-hal.c:1071: case USAGE_PWM:
      000C4B BD 02 2B         [24] 3774 	cjne	r5,#0x02,00120$
      000C4E 80 0F            [24] 3775 	sjmp	00119$
      000C50                       3776 00118$:
                                   3777 ;	/home/mr-a-717/.stc/uni-stc/hal/advpwm-hal.c:1072: pwmOnChannelInterrupt(channel, 0);
      000C50 90r00r00         [24] 3778 	mov	dptr,#_pwmOnChannelInterrupt_PARM_2
      000C53 E4               [12] 3779 	clr	a
      000C54 F0               [24] 3780 	movx	@dptr,a
      000C55 A3               [24] 3781 	inc	dptr
      000C56 F0               [24] 3782 	movx	@dptr,a
      000C57 8F 82            [24] 3783 	mov	dpl,r7
      000C59 12r00r00         [24] 3784 	lcall	_pwmOnChannelInterrupt
                                   3785 ;	/home/mr-a-717/.stc/uni-stc/hal/advpwm-hal.c:1073: break;
      000C5C 02r0DrCC         [24] 3786 	ljmp	00135$
                                   3787 ;	/home/mr-a-717/.stc/uni-stc/hal/advpwm-hal.c:1075: case USAGE_ENCODER:
      000C5F                       3788 00119$:
                                   3789 ;	/home/mr-a-717/.stc/uni-stc/hal/advpwm-hal.c:1076: pwmOnChannelInterrupt(channel, PWMA_CR1 & M_DIR);
      000C5F 90 FE C0         [24] 3790 	mov	dptr,#_PWMA_CR1
      000C62 E0               [24] 3791 	movx	a,@dptr
      000C63 FC               [12] 3792 	mov	r4,a
      000C64 53 04 10         [24] 3793 	anl	ar4,#0x10
      000C67 7B 00            [12] 3794 	mov	r3,#0x00
      000C69 90r00r00         [24] 3795 	mov	dptr,#_pwmOnChannelInterrupt_PARM_2
      000C6C EC               [12] 3796 	mov	a,r4
      000C6D F0               [24] 3797 	movx	@dptr,a
      000C6E EB               [12] 3798 	mov	a,r3
      000C6F A3               [24] 3799 	inc	dptr
      000C70 F0               [24] 3800 	movx	@dptr,a
      000C71 8F 82            [24] 3801 	mov	dpl,r7
      000C73 12r00r00         [24] 3802 	lcall	_pwmOnChannelInterrupt
                                   3803 ;	/home/mr-a-717/.stc/uni-stc/hal/advpwm-hal.c:1077: break;
      000C76 02r0DrCC         [24] 3804 	ljmp	00135$
                                   3805 ;	/home/mr-a-717/.stc/uni-stc/hal/advpwm-hal.c:1079: default: { // Capture
      000C79                       3806 00120$:
                                   3807 ;	/home/mr-a-717/.stc/uni-stc/hal/advpwm-hal.c:1081: counter.value = 0;
      000C79 90r00r7F         [24] 3808 	mov	dptr,#_pwmA_isr_counter_262144_247
      000C7C E4               [12] 3809 	clr	a
      000C7D F0               [24] 3810 	movx	@dptr,a
      000C7E A3               [24] 3811 	inc	dptr
      000C7F F0               [24] 3812 	movx	@dptr,a
                                   3813 ;	/home/mr-a-717/.stc/uni-stc/hal/advpwm-hal.c:1083: switch (channel) {
      000C80 BF 00 02         [24] 3814 	cjne	r7,#0x00,00241$
      000C83 80 0F            [24] 3815 	sjmp	00121$
      000C85                       3816 00241$:
      000C85 BF 02 02         [24] 3817 	cjne	r7,#0x02,00242$
      000C88 80 1D            [24] 3818 	sjmp	00122$
      000C8A                       3819 00242$:
      000C8A BF 04 02         [24] 3820 	cjne	r7,#0x04,00243$
      000C8D 80 2B            [24] 3821 	sjmp	00123$
      000C8F                       3822 00243$:
                                   3823 ;	/home/mr-a-717/.stc/uni-stc/hal/advpwm-hal.c:1084: case PWM_Channel0:
      000C8F BF 06 4C         [24] 3824 	cjne	r7,#0x06,00125$
      000C92 80 39            [24] 3825 	sjmp	00124$
      000C94                       3826 00121$:
                                   3827 ;	/home/mr-a-717/.stc/uni-stc/hal/advpwm-hal.c:1085: counter.byte.high = PWMA_CCR1H;
      000C94 90 FE D5         [24] 3828 	mov	dptr,#_PWMA_CCR1H
      000C97 E0               [24] 3829 	movx	a,@dptr
      000C98 90r00r80         [24] 3830 	mov	dptr,#(_pwmA_isr_counter_262144_247 + 0x0001)
      000C9B F0               [24] 3831 	movx	@dptr,a
                                   3832 ;	/home/mr-a-717/.stc/uni-stc/hal/advpwm-hal.c:1086: counter.byte.low = PWMA_CCR1L;
      000C9C 90 FE D6         [24] 3833 	mov	dptr,#_PWMA_CCR1L
      000C9F E0               [24] 3834 	movx	a,@dptr
      000CA0 FF               [12] 3835 	mov	r7,a
      000CA1 90r00r7F         [24] 3836 	mov	dptr,#_pwmA_isr_counter_262144_247
      000CA4 F0               [24] 3837 	movx	@dptr,a
                                   3838 ;	/home/mr-a-717/.stc/uni-stc/hal/advpwm-hal.c:1087: break;
                                   3839 ;	/home/mr-a-717/.stc/uni-stc/hal/advpwm-hal.c:1089: case PWM_Channel1:
      000CA5 80 37            [24] 3840 	sjmp	00125$
      000CA7                       3841 00122$:
                                   3842 ;	/home/mr-a-717/.stc/uni-stc/hal/advpwm-hal.c:1090: counter.byte.high = PWMA_CCR2H;
      000CA7 90 FE D7         [24] 3843 	mov	dptr,#_PWMA_CCR2H
      000CAA E0               [24] 3844 	movx	a,@dptr
      000CAB 90r00r80         [24] 3845 	mov	dptr,#(_pwmA_isr_counter_262144_247 + 0x0001)
      000CAE F0               [24] 3846 	movx	@dptr,a
                                   3847 ;	/home/mr-a-717/.stc/uni-stc/hal/advpwm-hal.c:1091: counter.byte.low = PWMA_CCR2L;
      000CAF 90 FE D8         [24] 3848 	mov	dptr,#_PWMA_CCR2L
      000CB2 E0               [24] 3849 	movx	a,@dptr
      000CB3 FF               [12] 3850 	mov	r7,a
      000CB4 90r00r7F         [24] 3851 	mov	dptr,#_pwmA_isr_counter_262144_247
      000CB7 F0               [24] 3852 	movx	@dptr,a
                                   3853 ;	/home/mr-a-717/.stc/uni-stc/hal/advpwm-hal.c:1092: break;
                                   3854 ;	/home/mr-a-717/.stc/uni-stc/hal/advpwm-hal.c:1095: case PWM_Channel2:
      000CB8 80 24            [24] 3855 	sjmp	00125$
      000CBA                       3856 00123$:
                                   3857 ;	/home/mr-a-717/.stc/uni-stc/hal/advpwm-hal.c:1096: counter.byte.high = PWMA_CCR3H;
      000CBA 90 FE D9         [24] 3858 	mov	dptr,#_PWMA_CCR3H
      000CBD E0               [24] 3859 	movx	a,@dptr
      000CBE 90r00r80         [24] 3860 	mov	dptr,#(_pwmA_isr_counter_262144_247 + 0x0001)
      000CC1 F0               [24] 3861 	movx	@dptr,a
                                   3862 ;	/home/mr-a-717/.stc/uni-stc/hal/advpwm-hal.c:1097: counter.byte.low = PWMA_CCR3L;
      000CC2 90 FE DA         [24] 3863 	mov	dptr,#_PWMA_CCR3L
      000CC5 E0               [24] 3864 	movx	a,@dptr
      000CC6 FF               [12] 3865 	mov	r7,a
      000CC7 90r00r7F         [24] 3866 	mov	dptr,#_pwmA_isr_counter_262144_247
      000CCA F0               [24] 3867 	movx	@dptr,a
                                   3868 ;	/home/mr-a-717/.stc/uni-stc/hal/advpwm-hal.c:1098: break;
                                   3869 ;	/home/mr-a-717/.stc/uni-stc/hal/advpwm-hal.c:1099: case PWM_Channel3:
      000CCB 80 11            [24] 3870 	sjmp	00125$
      000CCD                       3871 00124$:
                                   3872 ;	/home/mr-a-717/.stc/uni-stc/hal/advpwm-hal.c:1100: counter.byte.high = PWMA_CCR4H;
      000CCD 90 FE DB         [24] 3873 	mov	dptr,#_PWMA_CCR4H
      000CD0 E0               [24] 3874 	movx	a,@dptr
      000CD1 90r00r80         [24] 3875 	mov	dptr,#(_pwmA_isr_counter_262144_247 + 0x0001)
      000CD4 F0               [24] 3876 	movx	@dptr,a
                                   3877 ;	/home/mr-a-717/.stc/uni-stc/hal/advpwm-hal.c:1101: counter.byte.low = PWMA_CCR4L;
      000CD5 90 FE DC         [24] 3878 	mov	dptr,#_PWMA_CCR4L
      000CD8 E0               [24] 3879 	movx	a,@dptr
      000CD9 FF               [12] 3880 	mov	r7,a
      000CDA 90r00r7F         [24] 3881 	mov	dptr,#_pwmA_isr_counter_262144_247
      000CDD F0               [24] 3882 	movx	@dptr,a
                                   3883 ;	/home/mr-a-717/.stc/uni-stc/hal/advpwm-hal.c:1104: }
      000CDE                       3884 00125$:
                                   3885 ;	/home/mr-a-717/.stc/uni-stc/hal/advpwm-hal.c:1106: uint8_t refIndex = channelIndex;
      000CDE 90r00r81         [24] 3886 	mov	dptr,#_pwmA_isr_refIndex_262145_249
      000CE1 EE               [12] 3887 	mov	a,r6
      000CE2 F0               [24] 3888 	movx	@dptr,a
                                   3889 ;	/home/mr-a-717/.stc/uni-stc/hal/advpwm-hal.c:1109: if (usage & PWM_REFERENCE_OTHER_PIN) {
      000CE3 ED               [12] 3890 	mov	a,r5
      000CE4 30 E4 33         [24] 3891 	jnb	acc.4,00132$
                                   3892 ;	/home/mr-a-717/.stc/uni-stc/hal/advpwm-hal.c:1110: switch (channel) {
      000CE7 90r00r7D         [24] 3893 	mov	dptr,#_pwmA_isr_channel_65536_236
      000CEA E0               [24] 3894 	movx	a,@dptr
      000CEB FF               [12] 3895 	mov	r7,a
      000CEC 60 0F            [24] 3896 	jz	00126$
      000CEE BF 02 02         [24] 3897 	cjne	r7,#0x02,00247$
      000CF1 80 12            [24] 3898 	sjmp	00127$
      000CF3                       3899 00247$:
      000CF3 BF 04 02         [24] 3900 	cjne	r7,#0x04,00248$
      000CF6 80 14            [24] 3901 	sjmp	00128$
      000CF8                       3902 00248$:
                                   3903 ;	/home/mr-a-717/.stc/uni-stc/hal/advpwm-hal.c:1111: case PWM_Channel0:
      000CF8 BF 06 1F         [24] 3904 	cjne	r7,#0x06,00132$
      000CFB 80 17            [24] 3905 	sjmp	00129$
      000CFD                       3906 00126$:
                                   3907 ;	/home/mr-a-717/.stc/uni-stc/hal/advpwm-hal.c:1112: refIndex = PWM_Channel1 >> 1;
      000CFD 90r00r81         [24] 3908 	mov	dptr,#_pwmA_isr_refIndex_262145_249
      000D00 74 01            [12] 3909 	mov	a,#0x01
      000D02 F0               [24] 3910 	movx	@dptr,a
                                   3911 ;	/home/mr-a-717/.stc/uni-stc/hal/advpwm-hal.c:1113: break;
                                   3912 ;	/home/mr-a-717/.stc/uni-stc/hal/advpwm-hal.c:1114: case PWM_Channel1:
      000D03 80 15            [24] 3913 	sjmp	00132$
      000D05                       3914 00127$:
                                   3915 ;	/home/mr-a-717/.stc/uni-stc/hal/advpwm-hal.c:1115: refIndex = PWM_Channel0 >> 1;
      000D05 90r00r81         [24] 3916 	mov	dptr,#_pwmA_isr_refIndex_262145_249
      000D08 E4               [12] 3917 	clr	a
      000D09 F0               [24] 3918 	movx	@dptr,a
                                   3919 ;	/home/mr-a-717/.stc/uni-stc/hal/advpwm-hal.c:1116: break;
                                   3920 ;	/home/mr-a-717/.stc/uni-stc/hal/advpwm-hal.c:1118: case PWM_Channel2:
      000D0A 80 0E            [24] 3921 	sjmp	00132$
      000D0C                       3922 00128$:
                                   3923 ;	/home/mr-a-717/.stc/uni-stc/hal/advpwm-hal.c:1119: refIndex = PWM_Channel3 >> 1;
      000D0C 90r00r81         [24] 3924 	mov	dptr,#_pwmA_isr_refIndex_262145_249
      000D0F 74 03            [12] 3925 	mov	a,#0x03
      000D11 F0               [24] 3926 	movx	@dptr,a
                                   3927 ;	/home/mr-a-717/.stc/uni-stc/hal/advpwm-hal.c:1120: break;
                                   3928 ;	/home/mr-a-717/.stc/uni-stc/hal/advpwm-hal.c:1121: case PWM_Channel3:
      000D12 80 06            [24] 3929 	sjmp	00132$
      000D14                       3930 00129$:
                                   3931 ;	/home/mr-a-717/.stc/uni-stc/hal/advpwm-hal.c:1122: refIndex = PWM_Channel2 >> 1;
      000D14 90r00r81         [24] 3932 	mov	dptr,#_pwmA_isr_refIndex_262145_249
      000D17 74 02            [12] 3933 	mov	a,#0x02
      000D19 F0               [24] 3934 	movx	@dptr,a
                                   3935 ;	/home/mr-a-717/.stc/uni-stc/hal/advpwm-hal.c:1125: }
      000D1A                       3936 00132$:
                                   3937 ;	/home/mr-a-717/.stc/uni-stc/hal/advpwm-hal.c:1130: channelNewCount.time.overflow = counterOverflow[PWM_COUNTER_A];
      000D1A 90r00r08         [24] 3938 	mov	dptr,#_counterOverflow
      000D1D E0               [24] 3939 	movx	a,@dptr
      000D1E FD               [12] 3940 	mov	r5,a
      000D1F A3               [24] 3941 	inc	dptr
      000D20 E0               [24] 3942 	movx	a,@dptr
      000D21 FF               [12] 3943 	mov	r7,a
      000D22 90r00r84         [24] 3944 	mov	dptr,#(_pwmA_isr_channelNewCount_262146_252 + 0x0002)
      000D25 ED               [12] 3945 	mov	a,r5
      000D26 F0               [24] 3946 	movx	@dptr,a
      000D27 EF               [12] 3947 	mov	a,r7
      000D28 A3               [24] 3948 	inc	dptr
      000D29 F0               [24] 3949 	movx	@dptr,a
                                   3950 ;	/home/mr-a-717/.stc/uni-stc/hal/advpwm-hal.c:1131: channelNewCount.time.counter = counter.value;
      000D2A 90r00r7F         [24] 3951 	mov	dptr,#_pwmA_isr_counter_262144_247
      000D2D E0               [24] 3952 	movx	a,@dptr
      000D2E FD               [12] 3953 	mov	r5,a
      000D2F A3               [24] 3954 	inc	dptr
      000D30 E0               [24] 3955 	movx	a,@dptr
      000D31 FF               [12] 3956 	mov	r7,a
      000D32 90r00r82         [24] 3957 	mov	dptr,#_pwmA_isr_channelNewCount_262146_252
      000D35 ED               [12] 3958 	mov	a,r5
      000D36 F0               [24] 3959 	movx	@dptr,a
      000D37 EF               [12] 3960 	mov	a,r7
      000D38 A3               [24] 3961 	inc	dptr
      000D39 F0               [24] 3962 	movx	@dptr,a
                                   3963 ;	/home/mr-a-717/.stc/uni-stc/hal/advpwm-hal.c:1132: elapsed.value = channelNewCount.value - channelLastCount[refIndex].value;
      000D3A 90r00r82         [24] 3964 	mov	dptr,#_pwmA_isr_channelNewCount_262146_252
      000D3D E0               [24] 3965 	movx	a,@dptr
      000D3E F5*00            [12] 3966 	mov	_pwmA_isr_sloc0_1_0,a
      000D40 A3               [24] 3967 	inc	dptr
      000D41 E0               [24] 3968 	movx	a,@dptr
      000D42 F5*01            [12] 3969 	mov	(_pwmA_isr_sloc0_1_0 + 1),a
      000D44 A3               [24] 3970 	inc	dptr
      000D45 E0               [24] 3971 	movx	a,@dptr
      000D46 F5*02            [12] 3972 	mov	(_pwmA_isr_sloc0_1_0 + 2),a
      000D48 A3               [24] 3973 	inc	dptr
      000D49 E0               [24] 3974 	movx	a,@dptr
      000D4A F5*03            [12] 3975 	mov	(_pwmA_isr_sloc0_1_0 + 3),a
      000D4C 90r00r81         [24] 3976 	mov	dptr,#_pwmA_isr_refIndex_262145_249
      000D4F E0               [24] 3977 	movx	a,@dptr
      000D50 75 F0 04         [24] 3978 	mov	b,#0x04
      000D53 A4               [48] 3979 	mul	ab
      000D54 24r01            [12] 3980 	add	a,#_channelLastCount
      000D56 F5 82            [12] 3981 	mov	dpl,a
      000D58 74s00            [12] 3982 	mov	a,#(_channelLastCount >> 8)
      000D5A 35 F0            [12] 3983 	addc	a,b
      000D5C F5 83            [12] 3984 	mov	dph,a
      000D5E E0               [24] 3985 	movx	a,@dptr
      000D5F F8               [12] 3986 	mov	r0,a
      000D60 A3               [24] 3987 	inc	dptr
      000D61 E0               [24] 3988 	movx	a,@dptr
      000D62 F9               [12] 3989 	mov	r1,a
      000D63 A3               [24] 3990 	inc	dptr
      000D64 E0               [24] 3991 	movx	a,@dptr
      000D65 FA               [12] 3992 	mov	r2,a
      000D66 A3               [24] 3993 	inc	dptr
      000D67 E0               [24] 3994 	movx	a,@dptr
      000D68 FF               [12] 3995 	mov	r7,a
      000D69 E5*00            [12] 3996 	mov	a,_pwmA_isr_sloc0_1_0
      000D6B C3               [12] 3997 	clr	c
      000D6C 98               [12] 3998 	subb	a,r0
      000D6D F8               [12] 3999 	mov	r0,a
      000D6E E5*01            [12] 4000 	mov	a,(_pwmA_isr_sloc0_1_0 + 1)
      000D70 99               [12] 4001 	subb	a,r1
      000D71 F9               [12] 4002 	mov	r1,a
      000D72 E5*02            [12] 4003 	mov	a,(_pwmA_isr_sloc0_1_0 + 2)
      000D74 9A               [12] 4004 	subb	a,r2
      000D75 FA               [12] 4005 	mov	r2,a
      000D76 E5*03            [12] 4006 	mov	a,(_pwmA_isr_sloc0_1_0 + 3)
      000D78 9F               [12] 4007 	subb	a,r7
      000D79 FF               [12] 4008 	mov	r7,a
      000D7A 90r00r86         [24] 4009 	mov	dptr,#_pwmA_isr_elapsed_262146_252
      000D7D E8               [12] 4010 	mov	a,r0
      000D7E F0               [24] 4011 	movx	@dptr,a
      000D7F E9               [12] 4012 	mov	a,r1
      000D80 A3               [24] 4013 	inc	dptr
      000D81 F0               [24] 4014 	movx	@dptr,a
      000D82 EA               [12] 4015 	mov	a,r2
      000D83 A3               [24] 4016 	inc	dptr
      000D84 F0               [24] 4017 	movx	@dptr,a
      000D85 EF               [12] 4018 	mov	a,r7
      000D86 A3               [24] 4019 	inc	dptr
      000D87 F0               [24] 4020 	movx	@dptr,a
                                   4021 ;	/home/mr-a-717/.stc/uni-stc/hal/advpwm-hal.c:1134: channelLastCount[channelIndex].value = channelNewCount.value;
      000D88 EE               [12] 4022 	mov	a,r6
      000D89 75 F0 04         [24] 4023 	mov	b,#0x04
      000D8C A4               [48] 4024 	mul	ab
      000D8D 24r01            [12] 4025 	add	a,#_channelLastCount
      000D8F FE               [12] 4026 	mov	r6,a
      000D90 74s00            [12] 4027 	mov	a,#(_channelLastCount >> 8)
      000D92 35 F0            [12] 4028 	addc	a,b
      000D94 FF               [12] 4029 	mov	r7,a
      000D95 90r00r82         [24] 4030 	mov	dptr,#_pwmA_isr_channelNewCount_262146_252
      000D98 E0               [24] 4031 	movx	a,@dptr
      000D99 FA               [12] 4032 	mov	r2,a
      000D9A A3               [24] 4033 	inc	dptr
      000D9B E0               [24] 4034 	movx	a,@dptr
      000D9C FB               [12] 4035 	mov	r3,a
      000D9D A3               [24] 4036 	inc	dptr
      000D9E E0               [24] 4037 	movx	a,@dptr
      000D9F FC               [12] 4038 	mov	r4,a
      000DA0 A3               [24] 4039 	inc	dptr
      000DA1 E0               [24] 4040 	movx	a,@dptr
      000DA2 FD               [12] 4041 	mov	r5,a
      000DA3 8E 82            [24] 4042 	mov	dpl,r6
      000DA5 8F 83            [24] 4043 	mov	dph,r7
      000DA7 EA               [12] 4044 	mov	a,r2
      000DA8 F0               [24] 4045 	movx	@dptr,a
      000DA9 EB               [12] 4046 	mov	a,r3
      000DAA A3               [24] 4047 	inc	dptr
      000DAB F0               [24] 4048 	movx	@dptr,a
      000DAC EC               [12] 4049 	mov	a,r4
      000DAD A3               [24] 4050 	inc	dptr
      000DAE F0               [24] 4051 	movx	@dptr,a
      000DAF ED               [12] 4052 	mov	a,r5
      000DB0 A3               [24] 4053 	inc	dptr
      000DB1 F0               [24] 4054 	movx	@dptr,a
                                   4055 ;	/home/mr-a-717/.stc/uni-stc/hal/advpwm-hal.c:1135: pwmOnChannelInterrupt(channel, elapsed.time.overflow);
      000DB2 90r00r7D         [24] 4056 	mov	dptr,#_pwmA_isr_channel_65536_236
      000DB5 E0               [24] 4057 	movx	a,@dptr
      000DB6 FF               [12] 4058 	mov	r7,a
      000DB7 90r00r88         [24] 4059 	mov	dptr,#(_pwmA_isr_elapsed_262146_252 + 0x0002)
      000DBA E0               [24] 4060 	movx	a,@dptr
      000DBB FD               [12] 4061 	mov	r5,a
      000DBC A3               [24] 4062 	inc	dptr
      000DBD E0               [24] 4063 	movx	a,@dptr
      000DBE FE               [12] 4064 	mov	r6,a
      000DBF 90r00r00         [24] 4065 	mov	dptr,#_pwmOnChannelInterrupt_PARM_2
      000DC2 ED               [12] 4066 	mov	a,r5
      000DC3 F0               [24] 4067 	movx	@dptr,a
      000DC4 EE               [12] 4068 	mov	a,r6
      000DC5 A3               [24] 4069 	inc	dptr
      000DC6 F0               [24] 4070 	movx	@dptr,a
      000DC7 8F 82            [24] 4071 	mov	dpl,r7
      000DC9 12r00r00         [24] 4072 	lcall	_pwmOnChannelInterrupt
                                   4073 ;	/home/mr-a-717/.stc/uni-stc/hal/advpwm-hal.c:1138: }
      000DCC                       4074 00135$:
                                   4075 ;	/home/mr-a-717/.stc/uni-stc/hal/advpwm-hal.c:1142: if (event != 255) {
      000DCC 90r00r7E         [24] 4076 	mov	dptr,#_pwmA_isr_event_65536_236
      000DCF E0               [24] 4077 	movx	a,@dptr
      000DD0 FF               [12] 4078 	mov	r7,a
      000DD1 BF FF 02         [24] 4079 	cjne	r7,#0xff,00250$
      000DD4 80 0B            [24] 4080 	sjmp	00138$
      000DD6                       4081 00250$:
                                   4082 ;	/home/mr-a-717/.stc/uni-stc/hal/advpwm-hal.c:1143: pwmOnCounterInterrupt(PWM_COUNTER_A, event);
      000DD6 90r00r00         [24] 4083 	mov	dptr,#_pwmOnCounterInterrupt_PARM_2
      000DD9 EF               [12] 4084 	mov	a,r7
      000DDA F0               [24] 4085 	movx	@dptr,a
      000DDB 75 82 00         [24] 4086 	mov	dpl,#0x00
      000DDE 12r00r00         [24] 4087 	lcall	_pwmOnCounterInterrupt
      000DE1                       4088 00138$:
                                   4089 ;	/home/mr-a-717/.stc/uni-stc/hal/advpwm-hal.c:1146: }
      000DE1 D0 D0            [24] 4090 	pop	psw
      000DE3 D0 00            [24] 4091 	pop	(0+0)
      000DE5 D0 01            [24] 4092 	pop	(0+1)
      000DE7 D0 02            [24] 4093 	pop	(0+2)
      000DE9 D0 03            [24] 4094 	pop	(0+3)
      000DEB D0 04            [24] 4095 	pop	(0+4)
      000DED D0 05            [24] 4096 	pop	(0+5)
      000DEF D0 06            [24] 4097 	pop	(0+6)
      000DF1 D0 07            [24] 4098 	pop	(0+7)
      000DF3 D0 83            [24] 4099 	pop	dph
      000DF5 D0 82            [24] 4100 	pop	dpl
      000DF7 D0 F0            [24] 4101 	pop	b
      000DF9 D0 E0            [24] 4102 	pop	acc
      000DFB D0*00            [24] 4103 	pop	bits
      000DFD 32               [24] 4104 	reti
                                   4105 ;------------------------------------------------------------
                                   4106 ;Allocation info for local variables in function 'pwmB_isr'
                                   4107 ;------------------------------------------------------------
                                   4108 ;sloc0                     Allocated with name '_pwmB_isr_sloc0_1_0'
                                   4109 ;channel                   Allocated with name '_pwmB_isr_channel_65536_255'
                                   4110 ;event                     Allocated with name '_pwmB_isr_event_65536_255'
                                   4111 ;channelIndex              Allocated with name '_pwmB_isr_channelIndex_131072_264'
                                   4112 ;usage                     Allocated with name '_pwmB_isr_usage_131072_264'
                                   4113 ;counter                   Allocated with name '_pwmB_isr_counter_262144_266'
                                   4114 ;refIndex                  Allocated with name '_pwmB_isr_refIndex_262145_268'
                                   4115 ;channelNewCount           Allocated with name '_pwmB_isr_channelNewCount_262146_271'
                                   4116 ;elapsed                   Allocated with name '_pwmB_isr_elapsed_262146_271'
                                   4117 ;------------------------------------------------------------
                                   4118 ;	/home/mr-a-717/.stc/uni-stc/hal/advpwm-hal.c:1149: INTERRUPT(pwmB_isr, PWMB_INTERRUPT) {
                                   4119 ;	-----------------------------------------
                                   4120 ;	 function pwmB_isr
                                   4121 ;	-----------------------------------------
      000DFE                       4122 _pwmB_isr:
      000DFE C0*00            [24] 4123 	push	bits
      000E00 C0 E0            [24] 4124 	push	acc
      000E02 C0 F0            [24] 4125 	push	b
      000E04 C0 82            [24] 4126 	push	dpl
      000E06 C0 83            [24] 4127 	push	dph
      000E08 C0 07            [24] 4128 	push	(0+7)
      000E0A C0 06            [24] 4129 	push	(0+6)
      000E0C C0 05            [24] 4130 	push	(0+5)
      000E0E C0 04            [24] 4131 	push	(0+4)
      000E10 C0 03            [24] 4132 	push	(0+3)
      000E12 C0 02            [24] 4133 	push	(0+2)
      000E14 C0 01            [24] 4134 	push	(0+1)
      000E16 C0 00            [24] 4135 	push	(0+0)
      000E18 C0 D0            [24] 4136 	push	psw
      000E1A 75 D0 00         [24] 4137 	mov	psw,#0x00
                                   4138 ;	/home/mr-a-717/.stc/uni-stc/hal/advpwm-hal.c:1150: uint8_t channel = 255;
      000E1D 90r00r8A         [24] 4139 	mov	dptr,#_pwmB_isr_channel_65536_255
      000E20 74 FF            [12] 4140 	mov	a,#0xff
      000E22 F0               [24] 4141 	movx	@dptr,a
                                   4142 ;	/home/mr-a-717/.stc/uni-stc/hal/advpwm-hal.c:1152: uint8_t event = 255;
      000E23 90r00r8B         [24] 4143 	mov	dptr,#_pwmB_isr_event_65536_255
      000E26 F0               [24] 4144 	movx	@dptr,a
                                   4145 ;	/home/mr-a-717/.stc/uni-stc/hal/advpwm-hal.c:1155: if (PWMB_SR1 & M_CC5IF) {
      000E27 90 FE E5         [24] 4146 	mov	dptr,#_PWMB_SR1
      000E2A E0               [24] 4147 	movx	a,@dptr
      000E2B 30 E1 0E         [24] 4148 	jnb	acc.1,00102$
                                   4149 ;	/home/mr-a-717/.stc/uni-stc/hal/advpwm-hal.c:1156: PWMB_SR1 &= ~M_CC5IF;
      000E2E 90 FE E5         [24] 4150 	mov	dptr,#_PWMB_SR1
      000E31 E0               [24] 4151 	movx	a,@dptr
      000E32 53 E0 FD         [24] 4152 	anl	acc,#0xfd
      000E35 F0               [24] 4153 	movx	@dptr,a
                                   4154 ;	/home/mr-a-717/.stc/uni-stc/hal/advpwm-hal.c:1157: channel = PWM_Channel4;
      000E36 90r00r8A         [24] 4155 	mov	dptr,#_pwmB_isr_channel_65536_255
      000E39 74 08            [12] 4156 	mov	a,#0x08
      000E3B F0               [24] 4157 	movx	@dptr,a
      000E3C                       4158 00102$:
                                   4159 ;	/home/mr-a-717/.stc/uni-stc/hal/advpwm-hal.c:1160: if (PWMB_SR1 & M_CC6IF) {
      000E3C 90 FE E5         [24] 4160 	mov	dptr,#_PWMB_SR1
      000E3F E0               [24] 4161 	movx	a,@dptr
      000E40 30 E2 0E         [24] 4162 	jnb	acc.2,00104$
                                   4163 ;	/home/mr-a-717/.stc/uni-stc/hal/advpwm-hal.c:1161: PWMB_SR1 &= ~M_CC6IF;
      000E43 90 FE E5         [24] 4164 	mov	dptr,#_PWMB_SR1
      000E46 E0               [24] 4165 	movx	a,@dptr
      000E47 53 E0 FB         [24] 4166 	anl	acc,#0xfb
      000E4A F0               [24] 4167 	movx	@dptr,a
                                   4168 ;	/home/mr-a-717/.stc/uni-stc/hal/advpwm-hal.c:1162: channel = PWM_Channel5;
      000E4B 90r00r8A         [24] 4169 	mov	dptr,#_pwmB_isr_channel_65536_255
      000E4E 74 0A            [12] 4170 	mov	a,#0x0a
      000E50 F0               [24] 4171 	movx	@dptr,a
      000E51                       4172 00104$:
                                   4173 ;	/home/mr-a-717/.stc/uni-stc/hal/advpwm-hal.c:1165: if (PWMB_SR1 & M_CC7IF) {
      000E51 90 FE E5         [24] 4174 	mov	dptr,#_PWMB_SR1
      000E54 E0               [24] 4175 	movx	a,@dptr
      000E55 30 E3 0E         [24] 4176 	jnb	acc.3,00106$
                                   4177 ;	/home/mr-a-717/.stc/uni-stc/hal/advpwm-hal.c:1166: PWMB_SR1 &= ~M_CC7IF;
      000E58 90 FE E5         [24] 4178 	mov	dptr,#_PWMB_SR1
      000E5B E0               [24] 4179 	movx	a,@dptr
      000E5C 53 E0 F7         [24] 4180 	anl	acc,#0xf7
      000E5F F0               [24] 4181 	movx	@dptr,a
                                   4182 ;	/home/mr-a-717/.stc/uni-stc/hal/advpwm-hal.c:1167: channel = PWM_Channel6;
      000E60 90r00r8A         [24] 4183 	mov	dptr,#_pwmB_isr_channel_65536_255
      000E63 74 0C            [12] 4184 	mov	a,#0x0c
      000E65 F0               [24] 4185 	movx	@dptr,a
      000E66                       4186 00106$:
                                   4187 ;	/home/mr-a-717/.stc/uni-stc/hal/advpwm-hal.c:1170: if (PWMB_SR1 & M_CC8IF) {
      000E66 90 FE E5         [24] 4188 	mov	dptr,#_PWMB_SR1
      000E69 E0               [24] 4189 	movx	a,@dptr
      000E6A 30 E4 0E         [24] 4190 	jnb	acc.4,00108$
                                   4191 ;	/home/mr-a-717/.stc/uni-stc/hal/advpwm-hal.c:1171: PWMB_SR1 &= ~M_CC8IF;
      000E6D 90 FE E5         [24] 4192 	mov	dptr,#_PWMB_SR1
      000E70 E0               [24] 4193 	movx	a,@dptr
      000E71 53 E0 EF         [24] 4194 	anl	acc,#0xef
      000E74 F0               [24] 4195 	movx	@dptr,a
                                   4196 ;	/home/mr-a-717/.stc/uni-stc/hal/advpwm-hal.c:1172: channel = PWM_Channel7;
      000E75 90r00r8A         [24] 4197 	mov	dptr,#_pwmB_isr_channel_65536_255
      000E78 74 0E            [12] 4198 	mov	a,#0x0e
      000E7A F0               [24] 4199 	movx	@dptr,a
      000E7B                       4200 00108$:
                                   4201 ;	/home/mr-a-717/.stc/uni-stc/hal/advpwm-hal.c:1175: if (PWMB_SR1 & M_TIF) {
      000E7B 90 FE E5         [24] 4202 	mov	dptr,#_PWMB_SR1
      000E7E E0               [24] 4203 	movx	a,@dptr
      000E7F 30 E6 0E         [24] 4204 	jnb	acc.6,00110$
                                   4205 ;	/home/mr-a-717/.stc/uni-stc/hal/advpwm-hal.c:1176: PWMB_SR1 &= ~M_TIF;
      000E82 90 FE E5         [24] 4206 	mov	dptr,#_PWMB_SR1
      000E85 E0               [24] 4207 	movx	a,@dptr
      000E86 53 E0 BF         [24] 4208 	anl	acc,#0xbf
      000E89 F0               [24] 4209 	movx	@dptr,a
                                   4210 ;	/home/mr-a-717/.stc/uni-stc/hal/advpwm-hal.c:1178: event = PWM_INTERRUPT_TRIGGER;
      000E8A 90r00r8B         [24] 4211 	mov	dptr,#_pwmB_isr_event_65536_255
      000E8D 74 01            [12] 4212 	mov	a,#0x01
      000E8F F0               [24] 4213 	movx	@dptr,a
      000E90                       4214 00110$:
                                   4215 ;	/home/mr-a-717/.stc/uni-stc/hal/advpwm-hal.c:1182: if (PWMB_SR1 & M_COMIF) {
      000E90 90 FE E5         [24] 4216 	mov	dptr,#_PWMB_SR1
      000E93 E0               [24] 4217 	movx	a,@dptr
      000E94 30 E5 0E         [24] 4218 	jnb	acc.5,00112$
                                   4219 ;	/home/mr-a-717/.stc/uni-stc/hal/advpwm-hal.c:1183: PWMB_SR1 &= ~M_COMIF;
      000E97 90 FE E5         [24] 4220 	mov	dptr,#_PWMB_SR1
      000E9A E0               [24] 4221 	movx	a,@dptr
      000E9B 53 E0 DF         [24] 4222 	anl	acc,#0xdf
      000E9E F0               [24] 4223 	movx	@dptr,a
                                   4224 ;	/home/mr-a-717/.stc/uni-stc/hal/advpwm-hal.c:1185: event = PWM_INTERRUPT_COM;
      000E9F 90r00r8B         [24] 4225 	mov	dptr,#_pwmB_isr_event_65536_255
      000EA2 74 02            [12] 4226 	mov	a,#0x02
      000EA4 F0               [24] 4227 	movx	@dptr,a
      000EA5                       4228 00112$:
                                   4229 ;	/home/mr-a-717/.stc/uni-stc/hal/advpwm-hal.c:1189: if (PWMB_SR1 & M_UIF) {
      000EA5 90 FE E5         [24] 4230 	mov	dptr,#_PWMB_SR1
      000EA8 E0               [24] 4231 	movx	a,@dptr
      000EA9 30 E0 23         [24] 4232 	jnb	acc.0,00114$
                                   4233 ;	/home/mr-a-717/.stc/uni-stc/hal/advpwm-hal.c:1190: PWMB_SR1 &= ~M_UIF;
      000EAC 90 FE E5         [24] 4234 	mov	dptr,#_PWMB_SR1
      000EAF E0               [24] 4235 	movx	a,@dptr
      000EB0 53 E0 FE         [24] 4236 	anl	acc,#0xfe
      000EB3 F0               [24] 4237 	movx	@dptr,a
                                   4238 ;	/home/mr-a-717/.stc/uni-stc/hal/advpwm-hal.c:1192: event = PWM_INTERRUPT_UPDATE;
      000EB4 90r00r8B         [24] 4239 	mov	dptr,#_pwmB_isr_event_65536_255
      000EB7 74 03            [12] 4240 	mov	a,#0x03
      000EB9 F0               [24] 4241 	movx	@dptr,a
                                   4242 ;	/home/mr-a-717/.stc/uni-stc/hal/advpwm-hal.c:1194: counterOverflow[PWM_COUNTER_B]++;
      000EBA 90r00r0A         [24] 4243 	mov	dptr,#(_counterOverflow + 0x0002)
      000EBD E0               [24] 4244 	movx	a,@dptr
      000EBE FE               [12] 4245 	mov	r6,a
      000EBF A3               [24] 4246 	inc	dptr
      000EC0 E0               [24] 4247 	movx	a,@dptr
      000EC1 FF               [12] 4248 	mov	r7,a
      000EC2 0E               [12] 4249 	inc	r6
      000EC3 BE 00 01         [24] 4250 	cjne	r6,#0x00,00235$
      000EC6 0F               [12] 4251 	inc	r7
      000EC7                       4252 00235$:
      000EC7 90r00r0A         [24] 4253 	mov	dptr,#(_counterOverflow + 0x0002)
      000ECA EE               [12] 4254 	mov	a,r6
      000ECB F0               [24] 4255 	movx	@dptr,a
      000ECC EF               [12] 4256 	mov	a,r7
      000ECD A3               [24] 4257 	inc	dptr
      000ECE F0               [24] 4258 	movx	@dptr,a
      000ECF                       4259 00114$:
                                   4260 ;	/home/mr-a-717/.stc/uni-stc/hal/advpwm-hal.c:1197: if (PWMB_SR1 & M_BIF) {
      000ECF 90 FE E5         [24] 4261 	mov	dptr,#_PWMB_SR1
      000ED2 E0               [24] 4262 	movx	a,@dptr
      000ED3 30 E7 0D         [24] 4263 	jnb	acc.7,00116$
                                   4264 ;	/home/mr-a-717/.stc/uni-stc/hal/advpwm-hal.c:1201: PWMB_SR1 &= ~M_BIF;
      000ED6 90 FE E5         [24] 4265 	mov	dptr,#_PWMB_SR1
      000ED9 E0               [24] 4266 	movx	a,@dptr
      000EDA 53 E0 7F         [24] 4267 	anl	acc,#0x7f
      000EDD F0               [24] 4268 	movx	@dptr,a
                                   4269 ;	/home/mr-a-717/.stc/uni-stc/hal/advpwm-hal.c:1203: event = PWM_INTERRUPT_FAULT;
      000EDE 90r00r8B         [24] 4270 	mov	dptr,#_pwmB_isr_event_65536_255
      000EE1 E4               [12] 4271 	clr	a
      000EE2 F0               [24] 4272 	movx	@dptr,a
      000EE3                       4273 00116$:
                                   4274 ;	/home/mr-a-717/.stc/uni-stc/hal/advpwm-hal.c:1207: if (channel != 255) {
      000EE3 90r00r8A         [24] 4275 	mov	dptr,#_pwmB_isr_channel_65536_255
      000EE6 E0               [24] 4276 	movx	a,@dptr
      000EE7 FF               [12] 4277 	mov	r7,a
      000EE8 BF FF 03         [24] 4278 	cjne	r7,#0xff,00237$
      000EEB 02r10r8D         [24] 4279 	ljmp	00135$
      000EEE                       4280 00237$:
                                   4281 ;	/home/mr-a-717/.stc/uni-stc/hal/advpwm-hal.c:1208: uint8_t channelIndex = channel >> 1;
      000EEE EF               [12] 4282 	mov	a,r7
      000EEF C3               [12] 4283 	clr	c
      000EF0 13               [12] 4284 	rrc	a
                                   4285 ;	/home/mr-a-717/.stc/uni-stc/hal/advpwm-hal.c:1209: PWM_ChannelUsage usage = channelUsage[channelIndex];
      000EF1 FE               [12] 4286 	mov	r6,a
      000EF2 24r00            [12] 4287 	add	a,#_channelUsage
      000EF4 F5 82            [12] 4288 	mov	dpl,a
      000EF6 E4               [12] 4289 	clr	a
      000EF7 34s00            [12] 4290 	addc	a,#(_channelUsage >> 8)
      000EF9 F5 83            [12] 4291 	mov	dph,a
      000EFB E0               [24] 4292 	movx	a,@dptr
      000EFC FD               [12] 4293 	mov	r5,a
                                   4294 ;	/home/mr-a-717/.stc/uni-stc/hal/advpwm-hal.c:1211: switch (usage) {
      000EFD BD 00 03         [24] 4295 	cjne	r5,#0x00,00238$
      000F00 02r10r8D         [24] 4296 	ljmp	00135$
      000F03                       4297 00238$:
      000F03 BD 01 02         [24] 4298 	cjne	r5,#0x01,00239$
      000F06 80 05            [24] 4299 	sjmp	00118$
      000F08                       4300 00239$:
                                   4301 ;	/home/mr-a-717/.stc/uni-stc/hal/advpwm-hal.c:1215: case USAGE_PWM:
      000F08 BD 02 2B         [24] 4302 	cjne	r5,#0x02,00120$
      000F0B 80 0F            [24] 4303 	sjmp	00119$
      000F0D                       4304 00118$:
                                   4305 ;	/home/mr-a-717/.stc/uni-stc/hal/advpwm-hal.c:1216: pwmOnChannelInterrupt(channel, 0);
      000F0D 90r00r00         [24] 4306 	mov	dptr,#_pwmOnChannelInterrupt_PARM_2
      000F10 E4               [12] 4307 	clr	a
      000F11 F0               [24] 4308 	movx	@dptr,a
      000F12 A3               [24] 4309 	inc	dptr
      000F13 F0               [24] 4310 	movx	@dptr,a
      000F14 8F 82            [24] 4311 	mov	dpl,r7
      000F16 12r00r00         [24] 4312 	lcall	_pwmOnChannelInterrupt
                                   4313 ;	/home/mr-a-717/.stc/uni-stc/hal/advpwm-hal.c:1217: break;
      000F19 02r10r8D         [24] 4314 	ljmp	00135$
                                   4315 ;	/home/mr-a-717/.stc/uni-stc/hal/advpwm-hal.c:1219: case USAGE_ENCODER:
      000F1C                       4316 00119$:
                                   4317 ;	/home/mr-a-717/.stc/uni-stc/hal/advpwm-hal.c:1220: pwmOnChannelInterrupt(channel, PWMB_CR1 & M_DIR);
      000F1C 90 FE E0         [24] 4318 	mov	dptr,#_PWMB_CR1
      000F1F E0               [24] 4319 	movx	a,@dptr
      000F20 FC               [12] 4320 	mov	r4,a
      000F21 53 04 10         [24] 4321 	anl	ar4,#0x10
      000F24 7B 00            [12] 4322 	mov	r3,#0x00
      000F26 90r00r00         [24] 4323 	mov	dptr,#_pwmOnChannelInterrupt_PARM_2
      000F29 EC               [12] 4324 	mov	a,r4
      000F2A F0               [24] 4325 	movx	@dptr,a
      000F2B EB               [12] 4326 	mov	a,r3
      000F2C A3               [24] 4327 	inc	dptr
      000F2D F0               [24] 4328 	movx	@dptr,a
      000F2E 8F 82            [24] 4329 	mov	dpl,r7
      000F30 12r00r00         [24] 4330 	lcall	_pwmOnChannelInterrupt
                                   4331 ;	/home/mr-a-717/.stc/uni-stc/hal/advpwm-hal.c:1221: break;
      000F33 02r10r8D         [24] 4332 	ljmp	00135$
                                   4333 ;	/home/mr-a-717/.stc/uni-stc/hal/advpwm-hal.c:1223: default: { // Capture
      000F36                       4334 00120$:
                                   4335 ;	/home/mr-a-717/.stc/uni-stc/hal/advpwm-hal.c:1225: counter.value = 0;
      000F36 90r00r8C         [24] 4336 	mov	dptr,#_pwmB_isr_counter_262144_266
      000F39 E4               [12] 4337 	clr	a
      000F3A F0               [24] 4338 	movx	@dptr,a
      000F3B A3               [24] 4339 	inc	dptr
      000F3C F0               [24] 4340 	movx	@dptr,a
                                   4341 ;	/home/mr-a-717/.stc/uni-stc/hal/advpwm-hal.c:1227: switch (channel) {
      000F3D BF 08 02         [24] 4342 	cjne	r7,#0x08,00241$
      000F40 80 0F            [24] 4343 	sjmp	00121$
      000F42                       4344 00241$:
      000F42 BF 0A 02         [24] 4345 	cjne	r7,#0x0a,00242$
      000F45 80 1D            [24] 4346 	sjmp	00122$
      000F47                       4347 00242$:
      000F47 BF 0C 02         [24] 4348 	cjne	r7,#0x0c,00243$
      000F4A 80 2B            [24] 4349 	sjmp	00123$
      000F4C                       4350 00243$:
                                   4351 ;	/home/mr-a-717/.stc/uni-stc/hal/advpwm-hal.c:1228: case PWM_Channel4:
      000F4C BF 0E 4C         [24] 4352 	cjne	r7,#0x0e,00125$
      000F4F 80 39            [24] 4353 	sjmp	00124$
      000F51                       4354 00121$:
                                   4355 ;	/home/mr-a-717/.stc/uni-stc/hal/advpwm-hal.c:1229: counter.byte.high = PWMB_CCR1H;
      000F51 90 FE F5         [24] 4356 	mov	dptr,#_PWMB_CCR1H
      000F54 E0               [24] 4357 	movx	a,@dptr
      000F55 90r00r8D         [24] 4358 	mov	dptr,#(_pwmB_isr_counter_262144_266 + 0x0001)
      000F58 F0               [24] 4359 	movx	@dptr,a
                                   4360 ;	/home/mr-a-717/.stc/uni-stc/hal/advpwm-hal.c:1230: counter.byte.low = PWMB_CCR1L;
      000F59 90 FE F6         [24] 4361 	mov	dptr,#_PWMB_CCR1L
      000F5C E0               [24] 4362 	movx	a,@dptr
      000F5D FF               [12] 4363 	mov	r7,a
      000F5E 90r00r8C         [24] 4364 	mov	dptr,#_pwmB_isr_counter_262144_266
      000F61 F0               [24] 4365 	movx	@dptr,a
                                   4366 ;	/home/mr-a-717/.stc/uni-stc/hal/advpwm-hal.c:1231: break;
                                   4367 ;	/home/mr-a-717/.stc/uni-stc/hal/advpwm-hal.c:1232: case PWM_Channel5:
      000F62 80 37            [24] 4368 	sjmp	00125$
      000F64                       4369 00122$:
                                   4370 ;	/home/mr-a-717/.stc/uni-stc/hal/advpwm-hal.c:1233: counter.byte.high = PWMB_CCR2H;
      000F64 90 FE F7         [24] 4371 	mov	dptr,#_PWMB_CCR2H
      000F67 E0               [24] 4372 	movx	a,@dptr
      000F68 90r00r8D         [24] 4373 	mov	dptr,#(_pwmB_isr_counter_262144_266 + 0x0001)
      000F6B F0               [24] 4374 	movx	@dptr,a
                                   4375 ;	/home/mr-a-717/.stc/uni-stc/hal/advpwm-hal.c:1234: counter.byte.low = PWMB_CCR2L;
      000F6C 90 FE F8         [24] 4376 	mov	dptr,#_PWMB_CCR2L
      000F6F E0               [24] 4377 	movx	a,@dptr
      000F70 FF               [12] 4378 	mov	r7,a
      000F71 90r00r8C         [24] 4379 	mov	dptr,#_pwmB_isr_counter_262144_266
      000F74 F0               [24] 4380 	movx	@dptr,a
                                   4381 ;	/home/mr-a-717/.stc/uni-stc/hal/advpwm-hal.c:1235: break;
                                   4382 ;	/home/mr-a-717/.stc/uni-stc/hal/advpwm-hal.c:1236: case PWM_Channel6:
      000F75 80 24            [24] 4383 	sjmp	00125$
      000F77                       4384 00123$:
                                   4385 ;	/home/mr-a-717/.stc/uni-stc/hal/advpwm-hal.c:1237: counter.byte.high = PWMB_CCR3H;
      000F77 90 FE F9         [24] 4386 	mov	dptr,#_PWMB_CCR3H
      000F7A E0               [24] 4387 	movx	a,@dptr
      000F7B 90r00r8D         [24] 4388 	mov	dptr,#(_pwmB_isr_counter_262144_266 + 0x0001)
      000F7E F0               [24] 4389 	movx	@dptr,a
                                   4390 ;	/home/mr-a-717/.stc/uni-stc/hal/advpwm-hal.c:1238: counter.byte.low = PWMB_CCR3L;
      000F7F 90 FE FA         [24] 4391 	mov	dptr,#_PWMB_CCR3L
      000F82 E0               [24] 4392 	movx	a,@dptr
      000F83 FF               [12] 4393 	mov	r7,a
      000F84 90r00r8C         [24] 4394 	mov	dptr,#_pwmB_isr_counter_262144_266
      000F87 F0               [24] 4395 	movx	@dptr,a
                                   4396 ;	/home/mr-a-717/.stc/uni-stc/hal/advpwm-hal.c:1239: break;
                                   4397 ;	/home/mr-a-717/.stc/uni-stc/hal/advpwm-hal.c:1240: case PWM_Channel7:
      000F88 80 11            [24] 4398 	sjmp	00125$
      000F8A                       4399 00124$:
                                   4400 ;	/home/mr-a-717/.stc/uni-stc/hal/advpwm-hal.c:1241: counter.byte.high = PWMB_CCR4H;
      000F8A 90 FE FB         [24] 4401 	mov	dptr,#_PWMB_CCR4H
      000F8D E0               [24] 4402 	movx	a,@dptr
      000F8E 90r00r8D         [24] 4403 	mov	dptr,#(_pwmB_isr_counter_262144_266 + 0x0001)
      000F91 F0               [24] 4404 	movx	@dptr,a
                                   4405 ;	/home/mr-a-717/.stc/uni-stc/hal/advpwm-hal.c:1242: counter.byte.low = PWMB_CCR4L;
      000F92 90 FE FC         [24] 4406 	mov	dptr,#_PWMB_CCR4L
      000F95 E0               [24] 4407 	movx	a,@dptr
      000F96 FF               [12] 4408 	mov	r7,a
      000F97 90r00r8C         [24] 4409 	mov	dptr,#_pwmB_isr_counter_262144_266
      000F9A F0               [24] 4410 	movx	@dptr,a
                                   4411 ;	/home/mr-a-717/.stc/uni-stc/hal/advpwm-hal.c:1244: }
      000F9B                       4412 00125$:
                                   4413 ;	/home/mr-a-717/.stc/uni-stc/hal/advpwm-hal.c:1246: uint8_t refIndex = channelIndex;
      000F9B 90r00r8E         [24] 4414 	mov	dptr,#_pwmB_isr_refIndex_262145_268
      000F9E EE               [12] 4415 	mov	a,r6
      000F9F F0               [24] 4416 	movx	@dptr,a
                                   4417 ;	/home/mr-a-717/.stc/uni-stc/hal/advpwm-hal.c:1248: if (usage & PWM_REFERENCE_OTHER_PIN) {
      000FA0 ED               [12] 4418 	mov	a,r5
      000FA1 30 E4 37         [24] 4419 	jnb	acc.4,00132$
                                   4420 ;	/home/mr-a-717/.stc/uni-stc/hal/advpwm-hal.c:1249: switch (channel) {
      000FA4 90r00r8A         [24] 4421 	mov	dptr,#_pwmB_isr_channel_65536_255
      000FA7 E0               [24] 4422 	movx	a,@dptr
      000FA8 FF               [12] 4423 	mov	r7,a
      000FA9 BF 08 02         [24] 4424 	cjne	r7,#0x08,00246$
      000FAC 80 0F            [24] 4425 	sjmp	00126$
      000FAE                       4426 00246$:
      000FAE BF 0A 02         [24] 4427 	cjne	r7,#0x0a,00247$
      000FB1 80 12            [24] 4428 	sjmp	00127$
      000FB3                       4429 00247$:
      000FB3 BF 0C 02         [24] 4430 	cjne	r7,#0x0c,00248$
      000FB6 80 15            [24] 4431 	sjmp	00128$
      000FB8                       4432 00248$:
                                   4433 ;	/home/mr-a-717/.stc/uni-stc/hal/advpwm-hal.c:1250: case PWM_Channel4:
      000FB8 BF 0E 20         [24] 4434 	cjne	r7,#0x0e,00132$
      000FBB 80 18            [24] 4435 	sjmp	00129$
      000FBD                       4436 00126$:
                                   4437 ;	/home/mr-a-717/.stc/uni-stc/hal/advpwm-hal.c:1251: refIndex = PWM_Channel5 >> 1;
      000FBD 90r00r8E         [24] 4438 	mov	dptr,#_pwmB_isr_refIndex_262145_268
      000FC0 74 05            [12] 4439 	mov	a,#0x05
      000FC2 F0               [24] 4440 	movx	@dptr,a
                                   4441 ;	/home/mr-a-717/.stc/uni-stc/hal/advpwm-hal.c:1252: break;
                                   4442 ;	/home/mr-a-717/.stc/uni-stc/hal/advpwm-hal.c:1253: case PWM_Channel5:
      000FC3 80 16            [24] 4443 	sjmp	00132$
      000FC5                       4444 00127$:
                                   4445 ;	/home/mr-a-717/.stc/uni-stc/hal/advpwm-hal.c:1254: refIndex = PWM_Channel4 >> 1;
      000FC5 90r00r8E         [24] 4446 	mov	dptr,#_pwmB_isr_refIndex_262145_268
      000FC8 74 04            [12] 4447 	mov	a,#0x04
      000FCA F0               [24] 4448 	movx	@dptr,a
                                   4449 ;	/home/mr-a-717/.stc/uni-stc/hal/advpwm-hal.c:1255: break;
                                   4450 ;	/home/mr-a-717/.stc/uni-stc/hal/advpwm-hal.c:1256: case PWM_Channel6:
      000FCB 80 0E            [24] 4451 	sjmp	00132$
      000FCD                       4452 00128$:
                                   4453 ;	/home/mr-a-717/.stc/uni-stc/hal/advpwm-hal.c:1257: refIndex = PWM_Channel7 >> 1;
      000FCD 90r00r8E         [24] 4454 	mov	dptr,#_pwmB_isr_refIndex_262145_268
      000FD0 74 07            [12] 4455 	mov	a,#0x07
      000FD2 F0               [24] 4456 	movx	@dptr,a
                                   4457 ;	/home/mr-a-717/.stc/uni-stc/hal/advpwm-hal.c:1258: break;
                                   4458 ;	/home/mr-a-717/.stc/uni-stc/hal/advpwm-hal.c:1259: case PWM_Channel7:
      000FD3 80 06            [24] 4459 	sjmp	00132$
      000FD5                       4460 00129$:
                                   4461 ;	/home/mr-a-717/.stc/uni-stc/hal/advpwm-hal.c:1260: refIndex = PWM_Channel6 >> 1;
      000FD5 90r00r8E         [24] 4462 	mov	dptr,#_pwmB_isr_refIndex_262145_268
      000FD8 74 06            [12] 4463 	mov	a,#0x06
      000FDA F0               [24] 4464 	movx	@dptr,a
                                   4465 ;	/home/mr-a-717/.stc/uni-stc/hal/advpwm-hal.c:1262: }
      000FDB                       4466 00132$:
                                   4467 ;	/home/mr-a-717/.stc/uni-stc/hal/advpwm-hal.c:1266: channelNewCount.time.overflow = counterOverflow[PWM_COUNTER_B];
      000FDB 90r00r0A         [24] 4468 	mov	dptr,#(_counterOverflow + 0x0002)
      000FDE E0               [24] 4469 	movx	a,@dptr
      000FDF FD               [12] 4470 	mov	r5,a
      000FE0 A3               [24] 4471 	inc	dptr
      000FE1 E0               [24] 4472 	movx	a,@dptr
      000FE2 FF               [12] 4473 	mov	r7,a
      000FE3 90r00r91         [24] 4474 	mov	dptr,#(_pwmB_isr_channelNewCount_262146_271 + 0x0002)
      000FE6 ED               [12] 4475 	mov	a,r5
      000FE7 F0               [24] 4476 	movx	@dptr,a
      000FE8 EF               [12] 4477 	mov	a,r7
      000FE9 A3               [24] 4478 	inc	dptr
      000FEA F0               [24] 4479 	movx	@dptr,a
                                   4480 ;	/home/mr-a-717/.stc/uni-stc/hal/advpwm-hal.c:1267: channelNewCount.time.counter = counter.value;
      000FEB 90r00r8C         [24] 4481 	mov	dptr,#_pwmB_isr_counter_262144_266
      000FEE E0               [24] 4482 	movx	a,@dptr
      000FEF FD               [12] 4483 	mov	r5,a
      000FF0 A3               [24] 4484 	inc	dptr
      000FF1 E0               [24] 4485 	movx	a,@dptr
      000FF2 FF               [12] 4486 	mov	r7,a
      000FF3 90r00r8F         [24] 4487 	mov	dptr,#_pwmB_isr_channelNewCount_262146_271
      000FF6 ED               [12] 4488 	mov	a,r5
      000FF7 F0               [24] 4489 	movx	@dptr,a
      000FF8 EF               [12] 4490 	mov	a,r7
      000FF9 A3               [24] 4491 	inc	dptr
      000FFA F0               [24] 4492 	movx	@dptr,a
                                   4493 ;	/home/mr-a-717/.stc/uni-stc/hal/advpwm-hal.c:1268: elapsed.value = channelNewCount.value - channelLastCount[refIndex].value;
      000FFB 90r00r8F         [24] 4494 	mov	dptr,#_pwmB_isr_channelNewCount_262146_271
      000FFE E0               [24] 4495 	movx	a,@dptr
      000FFF F5*04            [12] 4496 	mov	_pwmB_isr_sloc0_1_0,a
      001001 A3               [24] 4497 	inc	dptr
      001002 E0               [24] 4498 	movx	a,@dptr
      001003 F5*05            [12] 4499 	mov	(_pwmB_isr_sloc0_1_0 + 1),a
      001005 A3               [24] 4500 	inc	dptr
      001006 E0               [24] 4501 	movx	a,@dptr
      001007 F5*06            [12] 4502 	mov	(_pwmB_isr_sloc0_1_0 + 2),a
      001009 A3               [24] 4503 	inc	dptr
      00100A E0               [24] 4504 	movx	a,@dptr
      00100B F5*07            [12] 4505 	mov	(_pwmB_isr_sloc0_1_0 + 3),a
      00100D 90r00r8E         [24] 4506 	mov	dptr,#_pwmB_isr_refIndex_262145_268
      001010 E0               [24] 4507 	movx	a,@dptr
      001011 75 F0 04         [24] 4508 	mov	b,#0x04
      001014 A4               [48] 4509 	mul	ab
      001015 24r01            [12] 4510 	add	a,#_channelLastCount
      001017 F5 82            [12] 4511 	mov	dpl,a
      001019 74s00            [12] 4512 	mov	a,#(_channelLastCount >> 8)
      00101B 35 F0            [12] 4513 	addc	a,b
      00101D F5 83            [12] 4514 	mov	dph,a
      00101F E0               [24] 4515 	movx	a,@dptr
      001020 F8               [12] 4516 	mov	r0,a
      001021 A3               [24] 4517 	inc	dptr
      001022 E0               [24] 4518 	movx	a,@dptr
      001023 F9               [12] 4519 	mov	r1,a
      001024 A3               [24] 4520 	inc	dptr
      001025 E0               [24] 4521 	movx	a,@dptr
      001026 FA               [12] 4522 	mov	r2,a
      001027 A3               [24] 4523 	inc	dptr
      001028 E0               [24] 4524 	movx	a,@dptr
      001029 FF               [12] 4525 	mov	r7,a
      00102A E5*04            [12] 4526 	mov	a,_pwmB_isr_sloc0_1_0
      00102C C3               [12] 4527 	clr	c
      00102D 98               [12] 4528 	subb	a,r0
      00102E F8               [12] 4529 	mov	r0,a
      00102F E5*05            [12] 4530 	mov	a,(_pwmB_isr_sloc0_1_0 + 1)
      001031 99               [12] 4531 	subb	a,r1
      001032 F9               [12] 4532 	mov	r1,a
      001033 E5*06            [12] 4533 	mov	a,(_pwmB_isr_sloc0_1_0 + 2)
      001035 9A               [12] 4534 	subb	a,r2
      001036 FA               [12] 4535 	mov	r2,a
      001037 E5*07            [12] 4536 	mov	a,(_pwmB_isr_sloc0_1_0 + 3)
      001039 9F               [12] 4537 	subb	a,r7
      00103A FF               [12] 4538 	mov	r7,a
      00103B 90r00r93         [24] 4539 	mov	dptr,#_pwmB_isr_elapsed_262146_271
      00103E E8               [12] 4540 	mov	a,r0
      00103F F0               [24] 4541 	movx	@dptr,a
      001040 E9               [12] 4542 	mov	a,r1
      001041 A3               [24] 4543 	inc	dptr
      001042 F0               [24] 4544 	movx	@dptr,a
      001043 EA               [12] 4545 	mov	a,r2
      001044 A3               [24] 4546 	inc	dptr
      001045 F0               [24] 4547 	movx	@dptr,a
      001046 EF               [12] 4548 	mov	a,r7
      001047 A3               [24] 4549 	inc	dptr
      001048 F0               [24] 4550 	movx	@dptr,a
                                   4551 ;	/home/mr-a-717/.stc/uni-stc/hal/advpwm-hal.c:1270: channelLastCount[channelIndex].value = channelNewCount.value;
      001049 EE               [12] 4552 	mov	a,r6
      00104A 75 F0 04         [24] 4553 	mov	b,#0x04
      00104D A4               [48] 4554 	mul	ab
      00104E 24r01            [12] 4555 	add	a,#_channelLastCount
      001050 FE               [12] 4556 	mov	r6,a
      001051 74s00            [12] 4557 	mov	a,#(_channelLastCount >> 8)
      001053 35 F0            [12] 4558 	addc	a,b
      001055 FF               [12] 4559 	mov	r7,a
      001056 90r00r8F         [24] 4560 	mov	dptr,#_pwmB_isr_channelNewCount_262146_271
      001059 E0               [24] 4561 	movx	a,@dptr
      00105A FA               [12] 4562 	mov	r2,a
      00105B A3               [24] 4563 	inc	dptr
      00105C E0               [24] 4564 	movx	a,@dptr
      00105D FB               [12] 4565 	mov	r3,a
      00105E A3               [24] 4566 	inc	dptr
      00105F E0               [24] 4567 	movx	a,@dptr
      001060 FC               [12] 4568 	mov	r4,a
      001061 A3               [24] 4569 	inc	dptr
      001062 E0               [24] 4570 	movx	a,@dptr
      001063 FD               [12] 4571 	mov	r5,a
      001064 8E 82            [24] 4572 	mov	dpl,r6
      001066 8F 83            [24] 4573 	mov	dph,r7
      001068 EA               [12] 4574 	mov	a,r2
      001069 F0               [24] 4575 	movx	@dptr,a
      00106A EB               [12] 4576 	mov	a,r3
      00106B A3               [24] 4577 	inc	dptr
      00106C F0               [24] 4578 	movx	@dptr,a
      00106D EC               [12] 4579 	mov	a,r4
      00106E A3               [24] 4580 	inc	dptr
      00106F F0               [24] 4581 	movx	@dptr,a
      001070 ED               [12] 4582 	mov	a,r5
      001071 A3               [24] 4583 	inc	dptr
      001072 F0               [24] 4584 	movx	@dptr,a
                                   4585 ;	/home/mr-a-717/.stc/uni-stc/hal/advpwm-hal.c:1271: pwmOnChannelInterrupt(channel, elapsed.time.overflow);
      001073 90r00r8A         [24] 4586 	mov	dptr,#_pwmB_isr_channel_65536_255
      001076 E0               [24] 4587 	movx	a,@dptr
      001077 FF               [12] 4588 	mov	r7,a
      001078 90r00r95         [24] 4589 	mov	dptr,#(_pwmB_isr_elapsed_262146_271 + 0x0002)
      00107B E0               [24] 4590 	movx	a,@dptr
      00107C FD               [12] 4591 	mov	r5,a
      00107D A3               [24] 4592 	inc	dptr
      00107E E0               [24] 4593 	movx	a,@dptr
      00107F FE               [12] 4594 	mov	r6,a
      001080 90r00r00         [24] 4595 	mov	dptr,#_pwmOnChannelInterrupt_PARM_2
      001083 ED               [12] 4596 	mov	a,r5
      001084 F0               [24] 4597 	movx	@dptr,a
      001085 EE               [12] 4598 	mov	a,r6
      001086 A3               [24] 4599 	inc	dptr
      001087 F0               [24] 4600 	movx	@dptr,a
      001088 8F 82            [24] 4601 	mov	dpl,r7
      00108A 12r00r00         [24] 4602 	lcall	_pwmOnChannelInterrupt
                                   4603 ;	/home/mr-a-717/.stc/uni-stc/hal/advpwm-hal.c:1274: }
      00108D                       4604 00135$:
                                   4605 ;	/home/mr-a-717/.stc/uni-stc/hal/advpwm-hal.c:1278: if (event != 255) {
      00108D 90r00r8B         [24] 4606 	mov	dptr,#_pwmB_isr_event_65536_255
      001090 E0               [24] 4607 	movx	a,@dptr
      001091 FF               [12] 4608 	mov	r7,a
      001092 BF FF 02         [24] 4609 	cjne	r7,#0xff,00250$
      001095 80 0B            [24] 4610 	sjmp	00138$
      001097                       4611 00250$:
                                   4612 ;	/home/mr-a-717/.stc/uni-stc/hal/advpwm-hal.c:1279: pwmOnCounterInterrupt(PWM_COUNTER_B, event);
      001097 90r00r00         [24] 4613 	mov	dptr,#_pwmOnCounterInterrupt_PARM_2
      00109A EF               [12] 4614 	mov	a,r7
      00109B F0               [24] 4615 	movx	@dptr,a
      00109C 75 82 01         [24] 4616 	mov	dpl,#0x01
      00109F 12r00r00         [24] 4617 	lcall	_pwmOnCounterInterrupt
      0010A2                       4618 00138$:
                                   4619 ;	/home/mr-a-717/.stc/uni-stc/hal/advpwm-hal.c:1282: }
      0010A2 D0 D0            [24] 4620 	pop	psw
      0010A4 D0 00            [24] 4621 	pop	(0+0)
      0010A6 D0 01            [24] 4622 	pop	(0+1)
      0010A8 D0 02            [24] 4623 	pop	(0+2)
      0010AA D0 03            [24] 4624 	pop	(0+3)
      0010AC D0 04            [24] 4625 	pop	(0+4)
      0010AE D0 05            [24] 4626 	pop	(0+5)
      0010B0 D0 06            [24] 4627 	pop	(0+6)
      0010B2 D0 07            [24] 4628 	pop	(0+7)
      0010B4 D0 83            [24] 4629 	pop	dph
      0010B6 D0 82            [24] 4630 	pop	dpl
      0010B8 D0 F0            [24] 4631 	pop	b
      0010BA D0 E0            [24] 4632 	pop	acc
      0010BC D0*00            [24] 4633 	pop	bits
      0010BE 32               [24] 4634 	reti
                                   4635 	.area CSEG    (CODE)
                                   4636 	.area CONST   (CODE)
      000000                       4637 _FONTS:
      000000 00                    4638 	.db #0x00	; 0
      000001 00                    4639 	.db #0x00	; 0
      000002 00                    4640 	.db #0x00	; 0
      000003 00                    4641 	.db #0x00	; 0
      000004 00                    4642 	.db #0x00	; 0
      000005 81                    4643 	.db #0x81	; 129
      000006 81                    4644 	.db #0x81	; 129
      000007 18                    4645 	.db #0x18	; 24
      000008 81                    4646 	.db #0x81	; 129
      000009 81                    4647 	.db #0x81	; 129
      00000A 00                    4648 	.db #0x00	; 0
      00000B 07                    4649 	.db #0x07	; 7
      00000C 00                    4650 	.db #0x00	; 0
      00000D 07                    4651 	.db #0x07	; 7
      00000E 00                    4652 	.db #0x00	; 0
      00000F 14                    4653 	.db #0x14	; 20
      000010 7F                    4654 	.db #0x7f	; 127
      000011 14                    4655 	.db #0x14	; 20
      000012 7F                    4656 	.db #0x7f	; 127
      000013 14                    4657 	.db #0x14	; 20
      000014 24                    4658 	.db #0x24	; 36
      000015 2A                    4659 	.db #0x2a	; 42
      000016 7F                    4660 	.db #0x7f	; 127
      000017 2A                    4661 	.db #0x2a	; 42
      000018 12                    4662 	.db #0x12	; 18
      000019 23                    4663 	.db #0x23	; 35
      00001A 13                    4664 	.db #0x13	; 19
      00001B 08                    4665 	.db #0x08	; 8
      00001C 64                    4666 	.db #0x64	; 100	'd'
      00001D 62                    4667 	.db #0x62	; 98	'b'
      00001E 36                    4668 	.db #0x36	; 54	'6'
      00001F 49                    4669 	.db #0x49	; 73	'I'
      000020 55                    4670 	.db #0x55	; 85	'U'
      000021 22                    4671 	.db #0x22	; 34
      000022 50                    4672 	.db #0x50	; 80	'P'
      000023 00                    4673 	.db #0x00	; 0
      000024 05                    4674 	.db #0x05	; 5
      000025 03                    4675 	.db #0x03	; 3
      000026 00                    4676 	.db #0x00	; 0
      000027 00                    4677 	.db #0x00	; 0
      000028 00                    4678 	.db #0x00	; 0
      000029 1C                    4679 	.db #0x1c	; 28
      00002A 22                    4680 	.db #0x22	; 34
      00002B 41                    4681 	.db #0x41	; 65	'A'
      00002C 00                    4682 	.db #0x00	; 0
      00002D 00                    4683 	.db #0x00	; 0
      00002E 41                    4684 	.db #0x41	; 65	'A'
      00002F 22                    4685 	.db #0x22	; 34
      000030 1C                    4686 	.db #0x1c	; 28
      000031 00                    4687 	.db #0x00	; 0
      000032 14                    4688 	.db #0x14	; 20
      000033 08                    4689 	.db #0x08	; 8
      000034 3E                    4690 	.db #0x3e	; 62
      000035 08                    4691 	.db #0x08	; 8
      000036 14                    4692 	.db #0x14	; 20
      000037 08                    4693 	.db #0x08	; 8
      000038 08                    4694 	.db #0x08	; 8
      000039 3E                    4695 	.db #0x3e	; 62
      00003A 08                    4696 	.db #0x08	; 8
      00003B 08                    4697 	.db #0x08	; 8
      00003C 00                    4698 	.db #0x00	; 0
      00003D 50                    4699 	.db #0x50	; 80	'P'
      00003E 30                    4700 	.db #0x30	; 48	'0'
      00003F 00                    4701 	.db #0x00	; 0
      000040 00                    4702 	.db #0x00	; 0
      000041 08                    4703 	.db #0x08	; 8
      000042 08                    4704 	.db #0x08	; 8
      000043 08                    4705 	.db #0x08	; 8
      000044 08                    4706 	.db #0x08	; 8
      000045 08                    4707 	.db #0x08	; 8
      000046 00                    4708 	.db #0x00	; 0
      000047 60                    4709 	.db #0x60	; 96
      000048 60                    4710 	.db #0x60	; 96
      000049 00                    4711 	.db #0x00	; 0
      00004A 00                    4712 	.db #0x00	; 0
      00004B 20                    4713 	.db #0x20	; 32
      00004C 10                    4714 	.db #0x10	; 16
      00004D 08                    4715 	.db #0x08	; 8
      00004E 04                    4716 	.db #0x04	; 4
      00004F 02                    4717 	.db #0x02	; 2
      000050 3E                    4718 	.db #0x3e	; 62
      000051 51                    4719 	.db #0x51	; 81	'Q'
      000052 49                    4720 	.db #0x49	; 73	'I'
      000053 45                    4721 	.db #0x45	; 69	'E'
      000054 3E                    4722 	.db #0x3e	; 62
      000055 00                    4723 	.db #0x00	; 0
      000056 42                    4724 	.db #0x42	; 66	'B'
      000057 7F                    4725 	.db #0x7f	; 127
      000058 40                    4726 	.db #0x40	; 64
      000059 00                    4727 	.db #0x00	; 0
      00005A 42                    4728 	.db #0x42	; 66	'B'
      00005B 61                    4729 	.db #0x61	; 97	'a'
      00005C 51                    4730 	.db #0x51	; 81	'Q'
      00005D 49                    4731 	.db #0x49	; 73	'I'
      00005E 46                    4732 	.db #0x46	; 70	'F'
      00005F 21                    4733 	.db #0x21	; 33
      000060 41                    4734 	.db #0x41	; 65	'A'
      000061 45                    4735 	.db #0x45	; 69	'E'
      000062 4B                    4736 	.db #0x4b	; 75	'K'
      000063 31                    4737 	.db #0x31	; 49	'1'
      000064 18                    4738 	.db #0x18	; 24
      000065 14                    4739 	.db #0x14	; 20
      000066 12                    4740 	.db #0x12	; 18
      000067 7F                    4741 	.db #0x7f	; 127
      000068 10                    4742 	.db #0x10	; 16
      000069 27                    4743 	.db #0x27	; 39
      00006A 45                    4744 	.db #0x45	; 69	'E'
      00006B 45                    4745 	.db #0x45	; 69	'E'
      00006C 45                    4746 	.db #0x45	; 69	'E'
      00006D 39                    4747 	.db #0x39	; 57	'9'
      00006E 3C                    4748 	.db #0x3c	; 60
      00006F 4A                    4749 	.db #0x4a	; 74	'J'
      000070 49                    4750 	.db #0x49	; 73	'I'
      000071 49                    4751 	.db #0x49	; 73	'I'
      000072 30                    4752 	.db #0x30	; 48	'0'
      000073 01                    4753 	.db #0x01	; 1
      000074 71                    4754 	.db #0x71	; 113	'q'
      000075 09                    4755 	.db #0x09	; 9
      000076 05                    4756 	.db #0x05	; 5
      000077 03                    4757 	.db #0x03	; 3
      000078 36                    4758 	.db #0x36	; 54	'6'
      000079 49                    4759 	.db #0x49	; 73	'I'
      00007A 49                    4760 	.db #0x49	; 73	'I'
      00007B 49                    4761 	.db #0x49	; 73	'I'
      00007C 36                    4762 	.db #0x36	; 54	'6'
      00007D 06                    4763 	.db #0x06	; 6
      00007E 49                    4764 	.db #0x49	; 73	'I'
      00007F 49                    4765 	.db #0x49	; 73	'I'
      000080 29                    4766 	.db #0x29	; 41
      000081 1E                    4767 	.db #0x1e	; 30
      000082 00                    4768 	.db #0x00	; 0
      000083 36                    4769 	.db #0x36	; 54	'6'
      000084 36                    4770 	.db #0x36	; 54	'6'
      000085 00                    4771 	.db #0x00	; 0
      000086 00                    4772 	.db #0x00	; 0
      000087 00                    4773 	.db #0x00	; 0
      000088 56                    4774 	.db #0x56	; 86	'V'
      000089 36                    4775 	.db #0x36	; 54	'6'
      00008A 00                    4776 	.db #0x00	; 0
      00008B 00                    4777 	.db #0x00	; 0
      00008C 08                    4778 	.db #0x08	; 8
      00008D 14                    4779 	.db #0x14	; 20
      00008E 22                    4780 	.db #0x22	; 34
      00008F 41                    4781 	.db #0x41	; 65	'A'
      000090 00                    4782 	.db #0x00	; 0
      000091 14                    4783 	.db #0x14	; 20
      000092 14                    4784 	.db #0x14	; 20
      000093 14                    4785 	.db #0x14	; 20
      000094 14                    4786 	.db #0x14	; 20
      000095 14                    4787 	.db #0x14	; 20
      000096 00                    4788 	.db #0x00	; 0
      000097 41                    4789 	.db #0x41	; 65	'A'
      000098 22                    4790 	.db #0x22	; 34
      000099 14                    4791 	.db #0x14	; 20
      00009A 08                    4792 	.db #0x08	; 8
      00009B 02                    4793 	.db #0x02	; 2
      00009C 01                    4794 	.db #0x01	; 1
      00009D 51                    4795 	.db #0x51	; 81	'Q'
      00009E 09                    4796 	.db #0x09	; 9
      00009F 06                    4797 	.db #0x06	; 6
      0000A0 32                    4798 	.db #0x32	; 50	'2'
      0000A1 49                    4799 	.db #0x49	; 73	'I'
      0000A2 79                    4800 	.db #0x79	; 121	'y'
      0000A3 41                    4801 	.db #0x41	; 65	'A'
      0000A4 3E                    4802 	.db #0x3e	; 62
      0000A5 7E                    4803 	.db #0x7e	; 126
      0000A6 11                    4804 	.db #0x11	; 17
      0000A7 11                    4805 	.db #0x11	; 17
      0000A8 11                    4806 	.db #0x11	; 17
      0000A9 7E                    4807 	.db #0x7e	; 126
      0000AA 7F                    4808 	.db #0x7f	; 127
      0000AB 49                    4809 	.db #0x49	; 73	'I'
      0000AC 49                    4810 	.db #0x49	; 73	'I'
      0000AD 49                    4811 	.db #0x49	; 73	'I'
      0000AE 36                    4812 	.db #0x36	; 54	'6'
      0000AF 3E                    4813 	.db #0x3e	; 62
      0000B0 41                    4814 	.db #0x41	; 65	'A'
      0000B1 41                    4815 	.db #0x41	; 65	'A'
      0000B2 41                    4816 	.db #0x41	; 65	'A'
      0000B3 22                    4817 	.db #0x22	; 34
      0000B4 7F                    4818 	.db #0x7f	; 127
      0000B5 41                    4819 	.db #0x41	; 65	'A'
      0000B6 41                    4820 	.db #0x41	; 65	'A'
      0000B7 22                    4821 	.db #0x22	; 34
      0000B8 1C                    4822 	.db #0x1c	; 28
      0000B9 7F                    4823 	.db #0x7f	; 127
      0000BA 49                    4824 	.db #0x49	; 73	'I'
      0000BB 49                    4825 	.db #0x49	; 73	'I'
      0000BC 49                    4826 	.db #0x49	; 73	'I'
      0000BD 41                    4827 	.db #0x41	; 65	'A'
      0000BE 7F                    4828 	.db #0x7f	; 127
      0000BF 09                    4829 	.db #0x09	; 9
      0000C0 09                    4830 	.db #0x09	; 9
      0000C1 09                    4831 	.db #0x09	; 9
      0000C2 01                    4832 	.db #0x01	; 1
      0000C3 3E                    4833 	.db #0x3e	; 62
      0000C4 41                    4834 	.db #0x41	; 65	'A'
      0000C5 49                    4835 	.db #0x49	; 73	'I'
      0000C6 49                    4836 	.db #0x49	; 73	'I'
      0000C7 7A                    4837 	.db #0x7a	; 122	'z'
      0000C8 7F                    4838 	.db #0x7f	; 127
      0000C9 08                    4839 	.db #0x08	; 8
      0000CA 08                    4840 	.db #0x08	; 8
      0000CB 08                    4841 	.db #0x08	; 8
      0000CC 7F                    4842 	.db #0x7f	; 127
      0000CD 00                    4843 	.db #0x00	; 0
      0000CE 41                    4844 	.db #0x41	; 65	'A'
      0000CF 7F                    4845 	.db #0x7f	; 127
      0000D0 41                    4846 	.db #0x41	; 65	'A'
      0000D1 00                    4847 	.db #0x00	; 0
      0000D2 20                    4848 	.db #0x20	; 32
      0000D3 40                    4849 	.db #0x40	; 64
      0000D4 41                    4850 	.db #0x41	; 65	'A'
      0000D5 3F                    4851 	.db #0x3f	; 63
      0000D6 01                    4852 	.db #0x01	; 1
      0000D7 7F                    4853 	.db #0x7f	; 127
      0000D8 08                    4854 	.db #0x08	; 8
      0000D9 14                    4855 	.db #0x14	; 20
      0000DA 22                    4856 	.db #0x22	; 34
      0000DB 41                    4857 	.db #0x41	; 65	'A'
      0000DC 7F                    4858 	.db #0x7f	; 127
      0000DD 40                    4859 	.db #0x40	; 64
      0000DE 40                    4860 	.db #0x40	; 64
      0000DF 40                    4861 	.db #0x40	; 64
      0000E0 40                    4862 	.db #0x40	; 64
      0000E1 7F                    4863 	.db #0x7f	; 127
      0000E2 02                    4864 	.db #0x02	; 2
      0000E3 0C                    4865 	.db #0x0c	; 12
      0000E4 02                    4866 	.db #0x02	; 2
      0000E5 7F                    4867 	.db #0x7f	; 127
      0000E6 7F                    4868 	.db #0x7f	; 127
      0000E7 04                    4869 	.db #0x04	; 4
      0000E8 08                    4870 	.db #0x08	; 8
      0000E9 10                    4871 	.db #0x10	; 16
      0000EA 7F                    4872 	.db #0x7f	; 127
      0000EB 3E                    4873 	.db #0x3e	; 62
      0000EC 41                    4874 	.db #0x41	; 65	'A'
      0000ED 41                    4875 	.db #0x41	; 65	'A'
      0000EE 41                    4876 	.db #0x41	; 65	'A'
      0000EF 3E                    4877 	.db #0x3e	; 62
      0000F0 7F                    4878 	.db #0x7f	; 127
      0000F1 09                    4879 	.db #0x09	; 9
      0000F2 09                    4880 	.db #0x09	; 9
      0000F3 09                    4881 	.db #0x09	; 9
      0000F4 06                    4882 	.db #0x06	; 6
      0000F5 3E                    4883 	.db #0x3e	; 62
      0000F6 41                    4884 	.db #0x41	; 65	'A'
      0000F7 51                    4885 	.db #0x51	; 81	'Q'
      0000F8 21                    4886 	.db #0x21	; 33
      0000F9 5E                    4887 	.db #0x5e	; 94
      0000FA 7F                    4888 	.db #0x7f	; 127
      0000FB 09                    4889 	.db #0x09	; 9
      0000FC 19                    4890 	.db #0x19	; 25
      0000FD 29                    4891 	.db #0x29	; 41
      0000FE 46                    4892 	.db #0x46	; 70	'F'
      0000FF 46                    4893 	.db #0x46	; 70	'F'
      000100 49                    4894 	.db #0x49	; 73	'I'
      000101 49                    4895 	.db #0x49	; 73	'I'
      000102 49                    4896 	.db #0x49	; 73	'I'
      000103 31                    4897 	.db #0x31	; 49	'1'
      000104 01                    4898 	.db #0x01	; 1
      000105 01                    4899 	.db #0x01	; 1
      000106 7F                    4900 	.db #0x7f	; 127
      000107 01                    4901 	.db #0x01	; 1
      000108 01                    4902 	.db #0x01	; 1
      000109 3F                    4903 	.db #0x3f	; 63
      00010A 40                    4904 	.db #0x40	; 64
      00010B 40                    4905 	.db #0x40	; 64
      00010C 40                    4906 	.db #0x40	; 64
      00010D 3F                    4907 	.db #0x3f	; 63
      00010E 1F                    4908 	.db #0x1f	; 31
      00010F 20                    4909 	.db #0x20	; 32
      000110 40                    4910 	.db #0x40	; 64
      000111 20                    4911 	.db #0x20	; 32
      000112 1F                    4912 	.db #0x1f	; 31
      000113 3F                    4913 	.db #0x3f	; 63
      000114 40                    4914 	.db #0x40	; 64
      000115 38                    4915 	.db #0x38	; 56	'8'
      000116 40                    4916 	.db #0x40	; 64
      000117 3F                    4917 	.db #0x3f	; 63
      000118 63                    4918 	.db #0x63	; 99	'c'
      000119 14                    4919 	.db #0x14	; 20
      00011A 08                    4920 	.db #0x08	; 8
      00011B 14                    4921 	.db #0x14	; 20
      00011C 63                    4922 	.db #0x63	; 99	'c'
      00011D 07                    4923 	.db #0x07	; 7
      00011E 08                    4924 	.db #0x08	; 8
      00011F 70                    4925 	.db #0x70	; 112	'p'
      000120 08                    4926 	.db #0x08	; 8
      000121 07                    4927 	.db #0x07	; 7
      000122 61                    4928 	.db #0x61	; 97	'a'
      000123 51                    4929 	.db #0x51	; 81	'Q'
      000124 49                    4930 	.db #0x49	; 73	'I'
      000125 45                    4931 	.db #0x45	; 69	'E'
      000126 43                    4932 	.db #0x43	; 67	'C'
      000127 00                    4933 	.db #0x00	; 0
      000128 7F                    4934 	.db #0x7f	; 127
      000129 41                    4935 	.db #0x41	; 65	'A'
      00012A 41                    4936 	.db #0x41	; 65	'A'
      00012B 00                    4937 	.db #0x00	; 0
      00012C 02                    4938 	.db #0x02	; 2
      00012D 04                    4939 	.db #0x04	; 4
      00012E 08                    4940 	.db #0x08	; 8
      00012F 10                    4941 	.db #0x10	; 16
      000130 20                    4942 	.db #0x20	; 32
      000131 00                    4943 	.db #0x00	; 0
      000132 41                    4944 	.db #0x41	; 65	'A'
      000133 41                    4945 	.db #0x41	; 65	'A'
      000134 7F                    4946 	.db #0x7f	; 127
      000135 00                    4947 	.db #0x00	; 0
      000136 04                    4948 	.db #0x04	; 4
      000137 02                    4949 	.db #0x02	; 2
      000138 01                    4950 	.db #0x01	; 1
      000139 02                    4951 	.db #0x02	; 2
      00013A 04                    4952 	.db #0x04	; 4
      00013B 40                    4953 	.db #0x40	; 64
      00013C 40                    4954 	.db #0x40	; 64
      00013D 40                    4955 	.db #0x40	; 64
      00013E 40                    4956 	.db #0x40	; 64
      00013F 40                    4957 	.db #0x40	; 64
      000140 00                    4958 	.db #0x00	; 0
      000141 01                    4959 	.db #0x01	; 1
      000142 02                    4960 	.db #0x02	; 2
      000143 04                    4961 	.db #0x04	; 4
      000144 00                    4962 	.db #0x00	; 0
      000145 20                    4963 	.db #0x20	; 32
      000146 54                    4964 	.db #0x54	; 84	'T'
      000147 54                    4965 	.db #0x54	; 84	'T'
      000148 54                    4966 	.db #0x54	; 84	'T'
      000149 78                    4967 	.db #0x78	; 120	'x'
      00014A 7F                    4968 	.db #0x7f	; 127
      00014B 48                    4969 	.db #0x48	; 72	'H'
      00014C 44                    4970 	.db #0x44	; 68	'D'
      00014D 44                    4971 	.db #0x44	; 68	'D'
      00014E 38                    4972 	.db #0x38	; 56	'8'
      00014F 38                    4973 	.db #0x38	; 56	'8'
      000150 44                    4974 	.db #0x44	; 68	'D'
      000151 44                    4975 	.db #0x44	; 68	'D'
      000152 44                    4976 	.db #0x44	; 68	'D'
      000153 20                    4977 	.db #0x20	; 32
      000154 38                    4978 	.db #0x38	; 56	'8'
      000155 44                    4979 	.db #0x44	; 68	'D'
      000156 44                    4980 	.db #0x44	; 68	'D'
      000157 48                    4981 	.db #0x48	; 72	'H'
      000158 7F                    4982 	.db #0x7f	; 127
      000159 38                    4983 	.db #0x38	; 56	'8'
      00015A 54                    4984 	.db #0x54	; 84	'T'
      00015B 54                    4985 	.db #0x54	; 84	'T'
      00015C 54                    4986 	.db #0x54	; 84	'T'
      00015D 18                    4987 	.db #0x18	; 24
      00015E 08                    4988 	.db #0x08	; 8
      00015F 7E                    4989 	.db #0x7e	; 126
      000160 09                    4990 	.db #0x09	; 9
      000161 01                    4991 	.db #0x01	; 1
      000162 02                    4992 	.db #0x02	; 2
      000163 0C                    4993 	.db #0x0c	; 12
      000164 52                    4994 	.db #0x52	; 82	'R'
      000165 52                    4995 	.db #0x52	; 82	'R'
      000166 52                    4996 	.db #0x52	; 82	'R'
      000167 3E                    4997 	.db #0x3e	; 62
      000168 7F                    4998 	.db #0x7f	; 127
      000169 08                    4999 	.db #0x08	; 8
      00016A 04                    5000 	.db #0x04	; 4
      00016B 04                    5001 	.db #0x04	; 4
      00016C 78                    5002 	.db #0x78	; 120	'x'
      00016D 00                    5003 	.db #0x00	; 0
      00016E 44                    5004 	.db #0x44	; 68	'D'
      00016F 7D                    5005 	.db #0x7d	; 125
      000170 40                    5006 	.db #0x40	; 64
      000171 00                    5007 	.db #0x00	; 0
      000172 20                    5008 	.db #0x20	; 32
      000173 40                    5009 	.db #0x40	; 64
      000174 44                    5010 	.db #0x44	; 68	'D'
      000175 3D                    5011 	.db #0x3d	; 61
      000176 00                    5012 	.db #0x00	; 0
      000177 7F                    5013 	.db #0x7f	; 127
      000178 10                    5014 	.db #0x10	; 16
      000179 28                    5015 	.db #0x28	; 40
      00017A 44                    5016 	.db #0x44	; 68	'D'
      00017B 00                    5017 	.db #0x00	; 0
      00017C 00                    5018 	.db #0x00	; 0
      00017D 41                    5019 	.db #0x41	; 65	'A'
      00017E 7F                    5020 	.db #0x7f	; 127
      00017F 40                    5021 	.db #0x40	; 64
      000180 00                    5022 	.db #0x00	; 0
      000181 7C                    5023 	.db #0x7c	; 124
      000182 04                    5024 	.db #0x04	; 4
      000183 18                    5025 	.db #0x18	; 24
      000184 04                    5026 	.db #0x04	; 4
      000185 78                    5027 	.db #0x78	; 120	'x'
      000186 7C                    5028 	.db #0x7c	; 124
      000187 08                    5029 	.db #0x08	; 8
      000188 04                    5030 	.db #0x04	; 4
      000189 04                    5031 	.db #0x04	; 4
      00018A 78                    5032 	.db #0x78	; 120	'x'
      00018B 38                    5033 	.db #0x38	; 56	'8'
      00018C 44                    5034 	.db #0x44	; 68	'D'
      00018D 44                    5035 	.db #0x44	; 68	'D'
      00018E 44                    5036 	.db #0x44	; 68	'D'
      00018F 38                    5037 	.db #0x38	; 56	'8'
      000190 7C                    5038 	.db #0x7c	; 124
      000191 14                    5039 	.db #0x14	; 20
      000192 14                    5040 	.db #0x14	; 20
      000193 14                    5041 	.db #0x14	; 20
      000194 08                    5042 	.db #0x08	; 8
      000195 08                    5043 	.db #0x08	; 8
      000196 14                    5044 	.db #0x14	; 20
      000197 14                    5045 	.db #0x14	; 20
      000198 14                    5046 	.db #0x14	; 20
      000199 7C                    5047 	.db #0x7c	; 124
      00019A 7C                    5048 	.db #0x7c	; 124
      00019B 08                    5049 	.db #0x08	; 8
      00019C 04                    5050 	.db #0x04	; 4
      00019D 04                    5051 	.db #0x04	; 4
      00019E 08                    5052 	.db #0x08	; 8
      00019F 48                    5053 	.db #0x48	; 72	'H'
      0001A0 54                    5054 	.db #0x54	; 84	'T'
      0001A1 54                    5055 	.db #0x54	; 84	'T'
      0001A2 54                    5056 	.db #0x54	; 84	'T'
      0001A3 20                    5057 	.db #0x20	; 32
      0001A4 04                    5058 	.db #0x04	; 4
      0001A5 3F                    5059 	.db #0x3f	; 63
      0001A6 44                    5060 	.db #0x44	; 68	'D'
      0001A7 40                    5061 	.db #0x40	; 64
      0001A8 20                    5062 	.db #0x20	; 32
      0001A9 3C                    5063 	.db #0x3c	; 60
      0001AA 40                    5064 	.db #0x40	; 64
      0001AB 40                    5065 	.db #0x40	; 64
      0001AC 20                    5066 	.db #0x20	; 32
      0001AD 7C                    5067 	.db #0x7c	; 124
      0001AE 1C                    5068 	.db #0x1c	; 28
      0001AF 20                    5069 	.db #0x20	; 32
      0001B0 40                    5070 	.db #0x40	; 64
      0001B1 20                    5071 	.db #0x20	; 32
      0001B2 1C                    5072 	.db #0x1c	; 28
      0001B3 3C                    5073 	.db #0x3c	; 60
      0001B4 40                    5074 	.db #0x40	; 64
      0001B5 30                    5075 	.db #0x30	; 48	'0'
      0001B6 40                    5076 	.db #0x40	; 64
      0001B7 3C                    5077 	.db #0x3c	; 60
      0001B8 44                    5078 	.db #0x44	; 68	'D'
      0001B9 28                    5079 	.db #0x28	; 40
      0001BA 10                    5080 	.db #0x10	; 16
      0001BB 28                    5081 	.db #0x28	; 40
      0001BC 44                    5082 	.db #0x44	; 68	'D'
      0001BD 0C                    5083 	.db #0x0c	; 12
      0001BE 50                    5084 	.db #0x50	; 80	'P'
      0001BF 50                    5085 	.db #0x50	; 80	'P'
      0001C0 50                    5086 	.db #0x50	; 80	'P'
      0001C1 3C                    5087 	.db #0x3c	; 60
      0001C2 44                    5088 	.db #0x44	; 68	'D'
      0001C3 64                    5089 	.db #0x64	; 100	'd'
      0001C4 54                    5090 	.db #0x54	; 84	'T'
      0001C5 4C                    5091 	.db #0x4c	; 76	'L'
      0001C6 44                    5092 	.db #0x44	; 68	'D'
      0001C7 00                    5093 	.db #0x00	; 0
      0001C8 08                    5094 	.db #0x08	; 8
      0001C9 36                    5095 	.db #0x36	; 54	'6'
      0001CA 41                    5096 	.db #0x41	; 65	'A'
      0001CB 00                    5097 	.db #0x00	; 0
      0001CC 00                    5098 	.db #0x00	; 0
      0001CD 00                    5099 	.db #0x00	; 0
      0001CE 7F                    5100 	.db #0x7f	; 127
      0001CF 00                    5101 	.db #0x00	; 0
      0001D0 00                    5102 	.db #0x00	; 0
      0001D1 00                    5103 	.db #0x00	; 0
      0001D2 41                    5104 	.db #0x41	; 65	'A'
      0001D3 36                    5105 	.db #0x36	; 54	'6'
      0001D4 08                    5106 	.db #0x08	; 8
      0001D5 00                    5107 	.db #0x00	; 0
      0001D6 10                    5108 	.db #0x10	; 16
      0001D7 08                    5109 	.db #0x08	; 8
      0001D8 08                    5110 	.db #0x08	; 8
      0001D9 10                    5111 	.db #0x10	; 16
      0001DA 08                    5112 	.db #0x08	; 8
      0001DB 00                    5113 	.db #0x00	; 0
      0001DC 00                    5114 	.db #0x00	; 0
      0001DD 00                    5115 	.db #0x00	; 0
      0001DE 00                    5116 	.db #0x00	; 0
      0001DF 00                    5117 	.db #0x00	; 0
      0001E0                       5118 ___channelPinConfigurations:
      0001E0 10                    5119 	.db #0x10	; 16
      0001E1 11                    5120 	.db #0x11	; 17
      0001E2 54                    5121 	.db #0x54	; 84	'T'
      0001E3 13                    5122 	.db #0x13	; 19
      0001E4 14                    5123 	.db #0x14	; 20
      0001E5 15                    5124 	.db #0x15	; 21
      0001E6 16                    5125 	.db #0x16	; 22
      0001E7 17                    5126 	.db #0x17	; 23
      0001E8 20                    5127 	.db #0x20	; 32
      0001E9 21                    5128 	.db #0x21	; 33
      0001EA 22                    5129 	.db #0x22	; 34
      0001EB 23                    5130 	.db #0x23	; 35
      0001EC 20                    5131 	.db #0x20	; 32
      0001ED 21                    5132 	.db #0x21	; 33
      0001EE 22                    5133 	.db #0x22	; 34
      0001EF 23                    5134 	.db #0x23	; 35
      0001F0 24                    5135 	.db #0x24	; 36
      0001F1 25                    5136 	.db #0x25	; 37
      0001F2 26                    5137 	.db #0x26	; 38
      0001F3 27                    5138 	.db #0x27	; 39
      0001F4 17                    5139 	.db #0x17	; 23
      0001F5 54                    5140 	.db #0x54	; 84	'T'
      0001F6 33                    5141 	.db #0x33	; 51	'3'
      0001F7 34                    5142 	.db #0x34	; 52	'4'
      0001F8 FF                    5143 	.db #0xff	; 255
      0001F9 FF                    5144 	.db #0xff	; 255
      0001FA FF                    5145 	.db #0xff	; 255
      0001FB FF                    5146 	.db #0xff	; 255
      0001FC FF                    5147 	.db #0xff	; 255
      0001FD FF                    5148 	.db #0xff	; 255
      0001FE FF                    5149 	.db #0xff	; 255
      0001FF FF                    5150 	.db #0xff	; 255
      000200 00                    5151 	.db #0x00	; 0
      000201 01                    5152 	.db #0x01	; 1
      000202 02                    5153 	.db #0x02	; 2
      000203 03                    5154 	.db #0x03	; 3
      000204 FF                    5155 	.db #0xff	; 255
      000205 FF                    5156 	.db #0xff	; 255
      000206 FF                    5157 	.db #0xff	; 255
      000207 FF                    5158 	.db #0xff	; 255
      000208 FF                    5159 	.db #0xff	; 255
      000209 FF                    5160 	.db #0xff	; 255
      00020A 34                    5161 	.db #0x34	; 52	'4'
      00020B 33                    5162 	.db #0x33	; 51	'3'
      00020C FF                    5163 	.db #0xff	; 255
      00020D FF                    5164 	.db #0xff	; 255
      00020E FF                    5165 	.db #0xff	; 255
      00020F FF                    5166 	.db #0xff	; 255
      000210                       5167 ___triggerPinConfigurations:
      000210 32                    5168 	.db #0x32	; 50	'2'
      000211 32                    5169 	.db #0x32	; 50	'2'
      000212 41                    5170 	.db #0x41	; 65	'A'
      000213 06                    5171 	.db #0x06	; 6
      000214 73                    5172 	.db #0x73	; 115	's'
      000215 FF                    5173 	.db #0xff	; 255
      000216 FF                    5174 	.db #0xff	; 255
      000217 FF                    5175 	.db #0xff	; 255
      000218                       5176 ___faultPinConfigurations:
      000218 35                    5177 	.db #0x35	; 53	'5'
      000219 35                    5178 	.db #0x35	; 53	'5'
      00021A 99                    5179 	.db #0x99	; 153
      00021B 99                    5180 	.db #0x99	; 153
                                   5181 	.area XINIT   (CODE)
      000000                       5182 __xinit__channelUsage:
      000000 00                    5183 	.db #0x00	; 0
      000001 00                    5184 	.db #0x00	; 0
      000002 00                    5185 	.db #0x00	; 0
      000003 00                    5186 	.db #0x00	; 0
      000004 00                    5187 	.db #0x00	; 0
      000005 00                    5188 	.db #0x00	; 0
      000006 00                    5189 	.db #0x00	; 0
      000007 00                    5190 	.db #0x00	; 0
      000008                       5191 __xinit__counterOverflow:
      000008 00 00                 5192 	.byte #0x00, #0x00	; 0
      00000A 00 00                 5193 	.byte #0x00, #0x00	; 0
                                   5194 	.area CABS    (ABS,CODE)
